
enclave.so:     file format elf64-x86-64


Disassembly of section .plt:

0000000000000520 <.plt>:
 520:	ff 35 a2 8a 20 00    	push   QWORD PTR [rip+0x208aa2]        # 208fc8 <_GLOBAL_OFFSET_TABLE_+0x8>
 526:	ff 25 a4 8a 20 00    	jmp    QWORD PTR [rip+0x208aa4]        # 208fd0 <_GLOBAL_OFFSET_TABLE_+0x10>
 52c:	0f 1f 40 00          	nop    DWORD PTR [rax+0x0]

Disassembly of section .plt.got:

0000000000000530 <_Z9pcl_entryPvS_@plt>:
 530:	ff 25 aa 8a 20 00    	jmp    QWORD PTR [rip+0x208aaa]        # 208fe0 <_Z9pcl_entryPvS_>
 536:	66 90                	xchg   ax,ax

0000000000000538 <ippcpSetCpuFeatures@plt>:
 538:	ff 25 b2 8a 20 00    	jmp    QWORD PTR [rip+0x208ab2]        # 208ff0 <ippcpSetCpuFeatures>
 53e:	66 90                	xchg   ax,ax

Disassembly of section .text:

0000000000000540 <trts_access_version_dummy1>:
     540:	48 8d 05 c9 8a 20 00 	lea    rax,[rip+0x208ac9]        # 209010 <sgx_trts_version>
     547:	c6 00 73             	mov    BYTE PTR [rax],0x73
     54a:	c3                   	ret    
     54b:	0f 1f 44 00 00       	nop    DWORD PTR [rax+rax*1+0x0]

0000000000000550 <tstdc_access_version_dummy1>:
     550:	c6 05 e9 8a 20 00 73 	mov    BYTE PTR [rip+0x208ae9],0x73        # 209040 <sgx_tstdc_version>
     557:	48 8d 05 e2 8a 20 00 	lea    rax,[rip+0x208ae2]        # 209040 <sgx_tstdc_version>
     55e:	c3                   	ret    
     55f:	90                   	nop

0000000000000560 <tcrypto_access_version_dummy1>:
     560:	c6 05 f9 8a 20 00 73 	mov    BYTE PTR [rip+0x208af9],0x73        # 209060 <sgx_tcrypto_version>
     567:	48 8d 05 f2 8a 20 00 	lea    rax,[rip+0x208af2]        # 209060 <sgx_tcrypto_version>
     56e:	c3                   	ret    
     56f:	90                   	nop

0000000000000570 <tservice_access_version_dummy1>:
     570:	c6 05 09 8b 20 00 73 	mov    BYTE PTR [rip+0x208b09],0x73        # 209080 <sgx_tservice_version>
     577:	48 8d 05 02 8b 20 00 	lea    rax,[rip+0x208b02]        # 209080 <sgx_tservice_version>
     57e:	c3                   	ret    

000000000000057f <sgx_ecall_function>:
     57f:	55                   	push   rbp
     580:	48 89 e5             	mov    rbp,rsp
     583:	48 83 ec 40          	sub    rsp,0x40
     587:	48 89 7d c8          	mov    QWORD PTR [rbp-0x38],rdi
     58b:	48 83 7d c8 00       	cmp    QWORD PTR [rbp-0x38],0x0
     590:	74 15                	je     5a7 <sgx_ecall_function+0x28>
     592:	48 8b 45 c8          	mov    rax,QWORD PTR [rbp-0x38]
     596:	be 08 00 00 00       	mov    esi,0x8
     59b:	48 89 c7             	mov    rdi,rax
     59e:	e8 5d 02 00 00       	call   800 <sgx_is_outside_enclave>
     5a3:	85 c0                	test   eax,eax
     5a5:	75 07                	jne    5ae <sgx_ecall_function+0x2f>
     5a7:	b8 02 00 00 00       	mov    eax,0x2
     5ac:	eb 52                	jmp    600 <sgx_ecall_function+0x81>
     5ae:	0f ae e8             	lfence 
     5b1:	48 8b 45 c8          	mov    rax,QWORD PTR [rbp-0x38]
     5b5:	48 89 45 e0          	mov    QWORD PTR [rbp-0x20],rax
     5b9:	c7 45 dc 00 00 00 00 	mov    DWORD PTR [rbp-0x24],0x0
     5c0:	48 8b 45 e0          	mov    rax,QWORD PTR [rbp-0x20]
     5c4:	48 8b 00             	mov    rax,QWORD PTR [rax]
     5c7:	48 89 45 e8          	mov    QWORD PTR [rbp-0x18],rax
     5cb:	48 c7 45 f0 04 00 00 	mov    QWORD PTR [rbp-0x10],0x4
     5d2:	00 
     5d3:	48 c7 45 f8 00 00 00 	mov    QWORD PTR [rbp-0x8],0x0
     5da:	00 
     5db:	0f ae e8             	lfence 
     5de:	48 8b 45 e8          	mov    rax,QWORD PTR [rbp-0x18]
     5e2:	48 89 c7             	mov    rdi,rax
     5e5:	e8 18 00 00 00       	call   602 <ecall_function>
     5ea:	48 83 7d f8 00       	cmp    QWORD PTR [rbp-0x8],0x0
     5ef:	74 0c                	je     5fd <sgx_ecall_function+0x7e>
     5f1:	48 8b 45 f8          	mov    rax,QWORD PTR [rbp-0x8]
     5f5:	48 89 c7             	mov    rdi,rax
     5f8:	e8 c3 49 00 00       	call   4fc0 <dlfree>
     5fd:	8b 45 dc             	mov    eax,DWORD PTR [rbp-0x24]
     600:	c9                   	leave  
     601:	c3                   	ret    

0000000000000602 <ecall_function>:
     602:	55                   	push   rbp
     603:	48 89 e5             	mov    rbp,rsp
     606:	48 83 ec 20          	sub    rsp,0x20
     60a:	48 89 7d e8          	mov    QWORD PTR [rbp-0x18],rdi
     60e:	48 8b 45 f8          	mov    rax,QWORD PTR [rbp-0x8]
     612:	be 00 00 00 00       	mov    esi,0x0
     617:	48 89 c7             	mov    rdi,rax
     61a:	e8 91 01 00 00       	call   7b0 <sgx_is_within_enclave>
     61f:	85 c0                	test   eax,eax
     621:	0f 95 c0             	setne  al
     624:	84 c0                	test   al,al
     626:	74 06                	je     62e <ecall_function+0x2c>
     628:	48 8b 45 f8          	mov    rax,QWORD PTR [rbp-0x8]
     62c:	ff d0                	call   rax
     62e:	90                   	nop
     62f:	c9                   	leave  
     630:	c3                   	ret    
     631:	66 2e 0f 1f 84 00 00 	nop    WORD PTR cs:[rax+rax*1+0x0]
     638:	00 00 00 
     63b:	0f 1f 44 00 00       	nop    DWORD PTR [rax+rax*1+0x0]

0000000000000640 <init_optimized_libs>:
     640:	48 8d 05 59 8a 20 00 	lea    rax,[rip+0x208a59]        # 2090a0 <g_enclave_state>
     647:	83 38 01             	cmp    DWORD PTR [rax],0x1
     64a:	0f 85 50 01 00 00    	jne    7a0 <init_optimized_libs+0x160>
     650:	55                   	push   rbp
     651:	53                   	push   rbx
     652:	48 b8 00 00 00 00 00 	movabs rax,0xff00000000000000
     659:	00 00 ff 
     65c:	48 89 f5             	mov    rbp,rsi
     65f:	48 83 ec 08          	sub    rsp,0x8
     663:	48 85 c7             	test   rdi,rax
     666:	0f 85 d4 00 00 00    	jne    740 <init_optimized_libs+0x100>
     66c:	48 f7 c7 00 fe ff ff 	test   rdi,0xfffffffffffffe00
     673:	0f 84 ef 00 00 00    	je     768 <init_optimized_libs+0x128>
     679:	40 f6 c7 20          	test   dil,0x20
     67d:	74 10                	je     68f <init_optimized_libs+0x4f>
     67f:	48 89 f8             	mov    rax,rdi
     682:	83 e0 1f             	and    eax,0x1f
     685:	48 83 f8 1f          	cmp    rax,0x1f
     689:	0f 85 d9 00 00 00    	jne    768 <init_optimized_libs+0x128>
     68f:	40 f6 c7 40          	test   dil,0x40
     693:	74 10                	je     6a5 <init_optimized_libs+0x65>
     695:	48 89 f8             	mov    rax,rdi
     698:	83 e0 3f             	and    eax,0x3f
     69b:	48 83 f8 3f          	cmp    rax,0x3f
     69f:	0f 85 c3 00 00 00    	jne    768 <init_optimized_libs+0x128>
     6a5:	40 f6 c7 80          	test   dil,0x80
     6a9:	74 10                	je     6bb <init_optimized_libs+0x7b>
     6ab:	48 89 f8             	mov    rax,rdi
     6ae:	83 e0 7f             	and    eax,0x7f
     6b1:	48 83 f8 7f          	cmp    rax,0x7f
     6b5:	0f 85 ad 00 00 00    	jne    768 <init_optimized_libs+0x128>
     6bb:	f7 c7 00 01 00 00    	test   edi,0x100
     6c1:	74 10                	je     6d3 <init_optimized_libs+0x93>
     6c3:	40 0f b6 c7          	movzx  eax,dil
     6c7:	48 3d ff 00 00 00    	cmp    rax,0xff
     6cd:	0f 85 95 00 00 00    	jne    768 <init_optimized_libs+0x128>
     6d3:	f7 c7 00 02 00 00    	test   edi,0x200
     6d9:	74 10                	je     6eb <init_optimized_libs+0xab>
     6db:	48 89 f8             	mov    rax,rdi
     6de:	25 ff 01 00 00       	and    eax,0x1ff
     6e3:	48 3d ff 01 00 00    	cmp    rax,0x1ff
     6e9:	75 7d                	jne    768 <init_optimized_libs+0x128>
     6eb:	f7 c7 00 04 00 00    	test   edi,0x400
     6f1:	75 65                	jne    758 <init_optimized_libs+0x118>
     6f3:	48 89 d0             	mov    rax,rdx
     6f6:	83 e0 06             	and    eax,0x6
     6f9:	48 83 f8 06          	cmp    rax,0x6
     6fd:	74 79                	je     778 <init_optimized_libs+0x138>
     6ff:	48 b8 ff 7f 12 86 08 	movabs rax,0xfffe200886127fff
     706:	20 fe ff 
     709:	48 21 c7             	and    rdi,rax
     70c:	48 8d 1d ed 86 20 00 	lea    rbx,[rip+0x2086ed]        # 208e00 <g_cpu_feature_indicator>
     713:	48 89 3b             	mov    QWORD PTR [rbx],rdi
     716:	e8 25 55 00 00       	call   5c40 <sgx_init_string_lib>
     71b:	85 c0                	test   eax,eax
     71d:	75 49                	jne    768 <init_optimized_libs+0x128>
     71f:	48 8b 3b             	mov    rdi,QWORD PTR [rbx]
     722:	48 89 ee             	mov    rsi,rbp
     725:	e8 26 57 00 00       	call   5e50 <sgx_init_crypto_lib>
     72a:	85 c0                	test   eax,eax
     72c:	0f 95 c0             	setne  al
     72f:	48 83 c4 08          	add    rsp,0x8
     733:	0f b6 c0             	movzx  eax,al
     736:	f7 d8                	neg    eax
     738:	5b                   	pop    rbx
     739:	5d                   	pop    rbp
     73a:	c3                   	ret    
     73b:	0f 1f 44 00 00       	nop    DWORD PTR [rax+rax*1+0x0]
     740:	48 b8 ff ff ff ff ff 	movabs rax,0xffffffffffffff
     747:	ff ff 00 
     74a:	48 21 c7             	and    rdi,rax
     74d:	e9 1a ff ff ff       	jmp    66c <init_optimized_libs+0x2c>
     752:	66 0f 1f 44 00 00    	nop    WORD PTR [rax+rax*1+0x0]
     758:	48 89 f8             	mov    rax,rdi
     75b:	25 ff 03 00 00       	and    eax,0x3ff
     760:	48 3d ff 03 00 00    	cmp    rax,0x3ff
     766:	74 8b                	je     6f3 <init_optimized_libs+0xb3>
     768:	48 83 c4 08          	add    rsp,0x8
     76c:	b8 ff ff ff ff       	mov    eax,0xffffffff
     771:	5b                   	pop    rbx
     772:	5d                   	pop    rbp
     773:	c3                   	ret    
     774:	0f 1f 40 00          	nop    DWORD PTR [rax+0x0]
     778:	81 e2 e0 00 00 00    	and    edx,0xe0
     77e:	48 81 fa e0 00 00 00 	cmp    rdx,0xe0
     785:	74 85                	je     70c <init_optimized_libs+0xcc>
     787:	48 b8 ff ff ff b6 18 	movabs rax,0xfffee018b6ffffff
     78e:	e0 fe ff 
     791:	48 21 c7             	and    rdi,rax
     794:	e9 73 ff ff ff       	jmp    70c <init_optimized_libs+0xcc>
     799:	0f 1f 80 00 00 00 00 	nop    DWORD PTR [rax+0x0]
     7a0:	b8 ff ff ff ff       	mov    eax,0xffffffff
     7a5:	c3                   	ret    
     7a6:	66 2e 0f 1f 84 00 00 	nop    WORD PTR cs:[rax+rax*1+0x0]
     7ad:	00 00 00 

00000000000007b0 <sgx_is_within_enclave>:
     7b0:	48 8d 05 49 65 00 00 	lea    rax,[rip+0x6549]        # 6d00 <g_global_data>
     7b7:	48 8d 0d 42 f8 ff ff 	lea    rcx,[rip+0xfffffffffffff842]        # 0 <enclave.so>
     7be:	48 85 f6             	test   rsi,rsi
     7c1:	48 8b 40 08          	mov    rax,QWORD PTR [rax+0x8]
     7c5:	4c 8d 44 08 ff       	lea    r8,[rax+rcx*1-0x1]
     7ca:	74 24                	je     7f0 <sgx_is_within_enclave+0x40>
     7cc:	48 83 ee 01          	sub    rsi,0x1
     7d0:	48 01 fe             	add    rsi,rdi
     7d3:	0f 93 c2             	setae  dl
     7d6:	48 39 cf             	cmp    rdi,rcx
     7d9:	0f 93 c0             	setae  al
     7dc:	21 c2                	and    edx,eax
     7de:	31 c0                	xor    eax,eax
     7e0:	4c 39 c6             	cmp    rsi,r8
     7e3:	0f 96 c0             	setbe  al
     7e6:	21 d0                	and    eax,edx
     7e8:	c3                   	ret    
     7e9:	0f 1f 80 00 00 00 00 	nop    DWORD PTR [rax+0x0]
     7f0:	48 89 fe             	mov    rsi,rdi
     7f3:	ba 01 00 00 00       	mov    edx,0x1
     7f8:	eb dc                	jmp    7d6 <sgx_is_within_enclave+0x26>
     7fa:	66 0f 1f 44 00 00    	nop    WORD PTR [rax+rax*1+0x0]

0000000000000800 <sgx_is_outside_enclave>:
     800:	48 8d 05 f9 64 00 00 	lea    rax,[rip+0x64f9]        # 6d00 <g_global_data>
     807:	48 85 f6             	test   rsi,rsi
     80a:	48 8b 40 08          	mov    rax,QWORD PTR [rax+0x8]
     80e:	74 10                	je     820 <sgx_is_outside_enclave+0x20>
     810:	48 83 ee 01          	sub    rsi,0x1
     814:	48 01 fe             	add    rsi,rdi
     817:	73 0a                	jae    823 <sgx_is_outside_enclave+0x23>
     819:	31 c0                	xor    eax,eax
     81b:	c3                   	ret    
     81c:	0f 1f 40 00          	nop    DWORD PTR [rax+0x0]
     820:	48 89 fe             	mov    rsi,rdi
     823:	48 8d 15 d6 f7 ff ff 	lea    rdx,[rip+0xfffffffffffff7d6]        # 0 <enclave.so>
     82a:	48 8d 44 10 ff       	lea    rax,[rax+rdx*1-0x1]
     82f:	48 39 c7             	cmp    rdi,rax
     832:	0f 97 c0             	seta   al
     835:	48 39 f2             	cmp    rdx,rsi
     838:	0f 97 c2             	seta   dl
     83b:	09 d0                	or     eax,edx
     83d:	0f b6 c0             	movzx  eax,al
     840:	c3                   	ret    
     841:	66 2e 0f 1f 84 00 00 	nop    WORD PTR cs:[rax+rax*1+0x0]
     848:	00 00 00 
     84b:	0f 1f 44 00 00       	nop    DWORD PTR [rax+rax*1+0x0]

0000000000000850 <sgx_ocalloc>:
     850:	53                   	push   rbx
     851:	48 89 fb             	mov    rbx,rdi
     854:	48 83 ec 10          	sub    rsp,0x10
     858:	e8 1d 60 00 00       	call   687a <get_thread_data>
     85d:	4c 8d 05 9c 64 00 00 	lea    r8,[rip+0x649c]        # 6d00 <g_global_data>
     864:	48 8b 70 20          	mov    rsi,QWORD PTR [rax+0x20]
     868:	48 8d 3d 91 f7 ff ff 	lea    rdi,[rip+0xfffffffffffff791]        # 0 <enclave.so>
     86f:	49 8b 40 08          	mov    rax,QWORD PTR [r8+0x8]
     873:	48 8b 96 90 00 00 00 	mov    rdx,QWORD PTR [rsi+0x90]
     87a:	48 8d 4c 07 ff       	lea    rcx,[rdi+rax*1-0x1]
     87f:	48 89 d0             	mov    rax,rdx
     882:	48 83 c0 07          	add    rax,0x7
     886:	0f 82 ad 00 00 00    	jb     939 <sgx_ocalloc+0xe9>
     88c:	48 39 c7             	cmp    rdi,rax
     88f:	77 09                	ja     89a <sgx_ocalloc+0x4a>
     891:	48 39 ca             	cmp    rdx,rcx
     894:	0f 86 9f 00 00 00    	jbe    939 <sgx_ocalloc+0xe9>
     89a:	48 39 da             	cmp    rdx,rbx
     89d:	0f 82 96 00 00 00    	jb     939 <sgx_ocalloc+0xe9>
     8a3:	48 89 d1             	mov    rcx,rdx
     8a6:	4d 8b 40 08          	mov    r8,QWORD PTR [r8+0x8]
     8aa:	48 29 d9             	sub    rcx,rbx
     8ad:	48 89 c8             	mov    rax,rcx
     8b0:	48 83 e0 f0          	and    rax,0xfffffffffffffff0
     8b4:	48 85 db             	test   rbx,rbx
     8b7:	4e 8d 44 07 ff       	lea    r8,[rdi+r8*1-0x1]
     8bc:	75 72                	jne    930 <sgx_ocalloc+0xe0>
     8be:	48 89 c3             	mov    rbx,rax
     8c1:	48 39 df             	cmp    rdi,rbx
     8c4:	77 05                	ja     8cb <sgx_ocalloc+0x7b>
     8c6:	4c 39 c0             	cmp    rax,r8
     8c9:	76 6e                	jbe    939 <sgx_ocalloc+0xe9>
     8cb:	48 83 ea 01          	sub    rdx,0x1
     8cf:	48 81 e2 00 f0 ff ff 	and    rdx,0xfffffffffffff000
     8d6:	48 81 e1 00 f0 ff ff 	and    rcx,0xfffffffffffff000
     8dd:	74 5a                	je     939 <sgx_ocalloc+0xe9>
     8df:	48 89 54 24 08       	mov    QWORD PTR [rsp+0x8],rdx
     8e4:	48 8b 54 24 08       	mov    rdx,QWORD PTR [rsp+0x8]
     8e9:	48 39 d1             	cmp    rcx,rdx
     8ec:	77 31                	ja     91f <sgx_ocalloc+0xcf>
     8ee:	66 90                	xchg   ax,ax
     8f0:	48 8b 54 24 08       	mov    rdx,QWORD PTR [rsp+0x8]
     8f5:	48 89 96 90 00 00 00 	mov    QWORD PTR [rsi+0x90],rdx
     8fc:	48 8b 54 24 08       	mov    rdx,QWORD PTR [rsp+0x8]
     901:	c6 02 00             	mov    BYTE PTR [rdx],0x0
     904:	48 8b 54 24 08       	mov    rdx,QWORD PTR [rsp+0x8]
     909:	48 81 ea 00 10 00 00 	sub    rdx,0x1000
     910:	48 89 54 24 08       	mov    QWORD PTR [rsp+0x8],rdx
     915:	48 8b 54 24 08       	mov    rdx,QWORD PTR [rsp+0x8]
     91a:	48 39 ca             	cmp    rdx,rcx
     91d:	73 d1                	jae    8f0 <sgx_ocalloc+0xa0>
     91f:	48 89 86 90 00 00 00 	mov    QWORD PTR [rsi+0x90],rax
     926:	48 83 c4 10          	add    rsp,0x10
     92a:	5b                   	pop    rbx
     92b:	c3                   	ret    
     92c:	0f 1f 40 00          	nop    DWORD PTR [rax+0x0]
     930:	48 83 eb 01          	sub    rbx,0x1
     934:	48 01 c3             	add    rbx,rax
     937:	73 88                	jae    8c1 <sgx_ocalloc+0x71>
     939:	e8 6b 62 00 00       	call   6ba9 <abort>
     93e:	66 90                	xchg   ax,ax

0000000000000940 <sgx_ocfree>:
     940:	48 83 ec 08          	sub    rsp,0x8
     944:	e8 31 5f 00 00       	call   687a <get_thread_data>
     949:	48 8d 0d b0 63 00 00 	lea    rcx,[rip+0x63b0]        # 6d00 <g_global_data>
     950:	48 8b 70 20          	mov    rsi,QWORD PTR [rax+0x20]
     954:	48 8b 40 08          	mov    rax,QWORD PTR [rax+0x8]
     958:	48 8d 15 a1 f6 ff ff 	lea    rdx,[rip+0xfffffffffffff6a1]        # 0 <enclave.so>
     95f:	48 8b 49 08          	mov    rcx,QWORD PTR [rcx+0x8]
     963:	48 8b 40 e8          	mov    rax,QWORD PTR [rax-0x18]
     967:	48 8d 7c 0a ff       	lea    rdi,[rdx+rcx*1-0x1]
     96c:	48 89 c1             	mov    rcx,rax
     96f:	48 83 c1 07          	add    rcx,0x7
     973:	72 16                	jb     98b <sgx_ocfree+0x4b>
     975:	48 39 ca             	cmp    rdx,rcx
     978:	77 05                	ja     97f <sgx_ocfree+0x3f>
     97a:	48 39 f8             	cmp    rax,rdi
     97d:	76 0c                	jbe    98b <sgx_ocfree+0x4b>
     97f:	48 89 86 90 00 00 00 	mov    QWORD PTR [rsi+0x90],rax
     986:	48 83 c4 08          	add    rsp,0x8
     98a:	c3                   	ret    
     98b:	e8 19 62 00 00       	call   6ba9 <abort>

0000000000000990 <sgx_read_rand>:
     990:	41 56                	push   r14
     992:	41 55                	push   r13
     994:	41 54                	push   r12
     996:	55                   	push   rbp
     997:	53                   	push   rbx
     998:	48 83 ec 10          	sub    rsp,0x10
     99c:	64 48 8b 04 25 28 00 	mov    rax,QWORD PTR fs:0x28
     9a3:	00 00 
     9a5:	48 89 44 24 08       	mov    QWORD PTR [rsp+0x8],rax
     9aa:	31 c0                	xor    eax,eax
     9ac:	48 85 ff             	test   rdi,rdi
     9af:	0f 84 cb 00 00 00    	je     a80 <sgx_read_rand+0xf0>
     9b5:	48 85 f6             	test   rsi,rsi
     9b8:	48 89 f3             	mov    rbx,rsi
     9bb:	0f 84 bf 00 00 00    	je     a80 <sgx_read_rand+0xf0>
     9c1:	48 8d 43 ff          	lea    rax,[rbx-0x1]
     9c5:	49 89 fc             	mov    r12,rdi
     9c8:	48 8d 35 31 63 00 00 	lea    rsi,[rip+0x6331]        # 6d00 <g_global_data>
     9cf:	48 8d 0d 2a f6 ff ff 	lea    rcx,[rip+0xfffffffffffff62a]        # 0 <enclave.so>
     9d6:	4c 01 e0             	add    rax,r12
     9d9:	41 0f 92 c0          	setb   r8b
     9dd:	48 8b 7e 08          	mov    rdi,QWORD PTR [rsi+0x8]
     9e1:	48 89 c2             	mov    rdx,rax
     9e4:	45 0f b6 c0          	movzx  r8d,r8b
     9e8:	0f 82 da 00 00 00    	jb     ac8 <sgx_read_rand+0x138>
     9ee:	49 39 cc             	cmp    r12,rcx
     9f1:	0f 82 d1 00 00 00    	jb     ac8 <sgx_read_rand+0x138>
     9f7:	48 8d 44 39 ff       	lea    rax,[rcx+rdi*1-0x1]
     9fc:	48 39 d0             	cmp    rax,rdx
     9ff:	0f 82 9b 00 00 00    	jb     aa0 <sgx_read_rand+0x110>
     a05:	4c 8d 6c 24 04       	lea    r13,[rsp+0x4]
     a0a:	c7 44 24 04 00 00 00 	mov    DWORD PTR [rsp+0x4],0x0
     a11:	00 
     a12:	41 be 04 00 00 00    	mov    r14d,0x4
     a18:	0f 1f 84 00 00 00 00 	nop    DWORD PTR [rax+rax*1+0x0]
     a1f:	00 
     a20:	4c 89 ef             	mov    rdi,r13
     a23:	e8 62 61 00 00       	call   6b8a <do_rdrand>
     a28:	85 c0                	test   eax,eax
     a2a:	74 64                	je     a90 <sgx_read_rand+0x100>
     a2c:	48 83 fb 04          	cmp    rbx,0x4
     a30:	4c 89 f5             	mov    rbp,r14
     a33:	4c 89 e7             	mov    rdi,r12
     a36:	48 0f 46 eb          	cmovbe rbp,rbx
     a3a:	4c 89 ee             	mov    rsi,r13
     a3d:	48 89 ea             	mov    rdx,rbp
     a40:	49 01 ec             	add    r12,rbp
     a43:	e8 d8 4f 00 00       	call   5a20 <memcpy>
     a48:	48 29 eb             	sub    rbx,rbp
     a4b:	75 d3                	jne    a20 <sgx_read_rand+0x90>
     a4d:	b9 04 00 00 00       	mov    ecx,0x4
     a52:	31 d2                	xor    edx,edx
     a54:	be 04 00 00 00       	mov    esi,0x4
     a59:	4c 89 ef             	mov    rdi,r13
     a5c:	e8 1f 50 00 00       	call   5a80 <memset_s>
     a61:	31 c0                	xor    eax,eax
     a63:	48 8b 4c 24 08       	mov    rcx,QWORD PTR [rsp+0x8]
     a68:	64 48 33 0c 25 28 00 	xor    rcx,QWORD PTR fs:0x28
     a6f:	00 00 
     a71:	75 6a                	jne    add <sgx_read_rand+0x14d>
     a73:	48 83 c4 10          	add    rsp,0x10
     a77:	5b                   	pop    rbx
     a78:	5d                   	pop    rbp
     a79:	41 5c                	pop    r12
     a7b:	41 5d                	pop    r13
     a7d:	41 5e                	pop    r14
     a7f:	c3                   	ret    
     a80:	b8 02 00 00 00       	mov    eax,0x2
     a85:	eb dc                	jmp    a63 <sgx_read_rand+0xd3>
     a87:	66 0f 1f 84 00 00 00 	nop    WORD PTR [rax+rax*1+0x0]
     a8e:	00 00 
     a90:	b8 01 00 00 00       	mov    eax,0x1
     a95:	eb cc                	jmp    a63 <sgx_read_rand+0xd3>
     a97:	66 0f 1f 84 00 00 00 	nop    WORD PTR [rax+rax*1+0x0]
     a9e:	00 00 
     aa0:	48 8b 46 08          	mov    rax,QWORD PTR [rsi+0x8]
     aa4:	48 8d 74 01 ff       	lea    rsi,[rcx+rax*1-0x1]
     aa9:	48 39 d1             	cmp    rcx,rdx
     aac:	0f 87 53 ff ff ff    	ja     a05 <sgx_read_rand+0x75>
     ab2:	49 39 f4             	cmp    r12,rsi
     ab5:	b8 02 00 00 00       	mov    eax,0x2
     aba:	0f 87 45 ff ff ff    	ja     a05 <sgx_read_rand+0x75>
     ac0:	eb a1                	jmp    a63 <sgx_read_rand+0xd3>
     ac2:	66 0f 1f 44 00 00    	nop    WORD PTR [rax+rax*1+0x0]
     ac8:	4d 85 c0             	test   r8,r8
     acb:	48 8b 76 08          	mov    rsi,QWORD PTR [rsi+0x8]
     acf:	b8 02 00 00 00       	mov    eax,0x2
     ad4:	75 8d                	jne    a63 <sgx_read_rand+0xd3>
     ad6:	48 8d 74 31 ff       	lea    rsi,[rcx+rsi*1-0x1]
     adb:	eb cc                	jmp    aa9 <sgx_read_rand+0x119>
     add:	e8 be 29 00 00       	call   34a0 <__stack_chk_fail>
     ae2:	66 2e 0f 1f 84 00 00 	nop    WORD PTR cs:[rax+rax*1+0x0]
     ae9:	00 00 00 
     aec:	0f 1f 40 00          	nop    DWORD PTR [rax+0x0]

0000000000000af0 <check_static_stack_canary>:
     af0:	48 8d 05 f1 82 20 00 	lea    rax,[rip+0x2082f1]        # 208de8 <__intel_security_cookie>
     af7:	48 8b 00             	mov    rax,QWORD PTR [rax]
     afa:	48 39 87 58 fd fe ff 	cmp    QWORD PTR [rdi-0x102a8],rax
     b01:	0f 95 c0             	setne  al
     b04:	0f b6 c0             	movzx  eax,al
     b07:	f7 d8                	neg    eax
     b09:	c3                   	ret    
     b0a:	66 0f 1f 44 00 00    	nop    WORD PTR [rax+rax*1+0x0]

0000000000000b10 <_ZL19sgx_accept_backwardmmm>:
     b10:	4c 8d 54 24 08       	lea    r10,[rsp+0x8]
     b15:	48 83 e4 c0          	and    rsp,0xffffffffffffffc0
     b19:	41 ff 72 f8          	push   QWORD PTR [r10-0x8]
     b1d:	55                   	push   rbp
     b1e:	48 89 e5             	mov    rbp,rsp
     b21:	41 55                	push   r13
     b23:	41 54                	push   r12
     b25:	41 52                	push   r10
     b27:	53                   	push   rbx
     b28:	48 81 ec 90 00 00 00 	sub    rsp,0x90
     b2f:	48 89 bd 50 ff ff ff 	mov    QWORD PTR [rbp-0xb0],rdi
     b36:	48 c7 85 58 ff ff ff 	mov    QWORD PTR [rbp-0xa8],0x0
     b3d:	00 00 00 00 
     b41:	64 48 8b 04 25 28 00 	mov    rax,QWORD PTR fs:0x28
     b48:	00 00 
     b4a:	48 89 45 c8          	mov    QWORD PTR [rbp-0x38],rax
     b4e:	31 c0                	xor    eax,eax
     b50:	48 39 f2             	cmp    rdx,rsi
     b53:	48 c7 85 60 ff ff ff 	mov    QWORD PTR [rbp-0xa0],0x0
     b5a:	00 00 00 00 
     b5e:	48 c7 85 68 ff ff ff 	mov    QWORD PTR [rbp-0x98],0x0
     b65:	00 00 00 00 
     b69:	48 c7 85 70 ff ff ff 	mov    QWORD PTR [rbp-0x90],0x0
     b70:	00 00 00 00 
     b74:	48 c7 85 78 ff ff ff 	mov    QWORD PTR [rbp-0x88],0x0
     b7b:	00 00 00 00 
     b7f:	48 c7 45 80 00 00 00 	mov    QWORD PTR [rbp-0x80],0x0
     b86:	00 
     b87:	48 c7 45 88 00 00 00 	mov    QWORD PTR [rbp-0x78],0x0
     b8e:	00 
     b8f:	76 2a                	jbe    bbb <_ZL19sgx_accept_backwardmmm+0xab>
     b91:	4c 8d ad 50 ff ff ff 	lea    r13,[rbp-0xb0]
     b98:	49 89 f4             	mov    r12,rsi
     b9b:	48 89 d3             	mov    rbx,rdx
     b9e:	66 90                	xchg   ax,ax
     ba0:	48 81 eb 00 10 00 00 	sub    rbx,0x1000
     ba7:	4c 89 ef             	mov    rdi,r13
     baa:	48 89 de             	mov    rsi,rbx
     bad:	e8 a9 5f 00 00       	call   6b5b <do_eaccept>
     bb2:	85 c0                	test   eax,eax
     bb4:	75 2a                	jne    be0 <_ZL19sgx_accept_backwardmmm+0xd0>
     bb6:	49 39 dc             	cmp    r12,rbx
     bb9:	72 e5                	jb     ba0 <_ZL19sgx_accept_backwardmmm+0x90>
     bbb:	31 c0                	xor    eax,eax
     bbd:	48 8b 4d c8          	mov    rcx,QWORD PTR [rbp-0x38]
     bc1:	64 48 33 0c 25 28 00 	xor    rcx,QWORD PTR fs:0x28
     bc8:	00 00 
     bca:	75 19                	jne    be5 <_ZL19sgx_accept_backwardmmm+0xd5>
     bcc:	48 81 c4 90 00 00 00 	add    rsp,0x90
     bd3:	5b                   	pop    rbx
     bd4:	41 5a                	pop    r10
     bd6:	41 5c                	pop    r12
     bd8:	41 5d                	pop    r13
     bda:	5d                   	pop    rbp
     bdb:	49 8d 62 f8          	lea    rsp,[r10-0x8]
     bdf:	c3                   	ret    
     be0:	e8 c4 5f 00 00       	call   6ba9 <abort>
     be5:	e8 b6 28 00 00       	call   34a0 <__stack_chk_fail>
     bea:	66 0f 1f 44 00 00    	nop    WORD PTR [rax+rax*1+0x0]

0000000000000bf0 <_ZL25check_dynamic_entry_rangePvmtmP24dynamic_flags_attributes.part.0>:
     bf0:	41 57                	push   r15
     bf2:	41 56                	push   r14
     bf4:	41 55                	push   r13
     bf6:	41 54                	push   r12
     bf8:	55                   	push   rbp
     bf9:	53                   	push   rbx
     bfa:	48 83 ec 08          	sub    rsp,0x8
     bfe:	48 8d 2d fb 60 00 00 	lea    rbp,[rip+0x60fb]        # 6d00 <g_global_data>
     c05:	8b 85 30 01 00 00    	mov    eax,DWORD PTR [rbp+0x130]
     c0b:	85 c0                	test   eax,eax
     c0d:	74 46                	je     c55 <_ZL25check_dynamic_entry_rangePvmtmP24dynamic_flags_attributes.part.0+0x65>
     c0f:	0f b7 85 38 01 00 00 	movzx  eax,WORD PTR [rbp+0x138]
     c16:	66 39 c2             	cmp    dx,ax
     c19:	0f 84 e1 00 00 00    	je     d00 <_ZL25check_dynamic_entry_rangePvmtmP24dynamic_flags_attributes.part.0+0x110>
     c1f:	41 89 d1             	mov    r9d,edx
     c22:	31 db                	xor    ebx,ebx
     c24:	eb 22                	jmp    c48 <_ZL25check_dynamic_entry_rangePvmtmP24dynamic_flags_attributes.part.0+0x58>
     c26:	66 2e 0f 1f 84 00 00 	nop    WORD PTR cs:[rax+rax*1+0x0]
     c2d:	00 00 00 
     c30:	89 d8                	mov    eax,ebx
     c32:	48 c1 e0 05          	shl    rax,0x5
     c36:	48 8d 54 05 00       	lea    rdx,[rbp+rax*1+0x0]
     c3b:	0f b7 92 38 01 00 00 	movzx  edx,WORD PTR [rdx+0x138]
     c42:	66 44 39 ca          	cmp    dx,r9w
     c46:	74 28                	je     c70 <_ZL25check_dynamic_entry_rangePvmtmP24dynamic_flags_attributes.part.0+0x80>
     c48:	8b 85 30 01 00 00    	mov    eax,DWORD PTR [rbp+0x130]
     c4e:	83 c3 01             	add    ebx,0x1
     c51:	39 d8                	cmp    eax,ebx
     c53:	77 db                	ja     c30 <_ZL25check_dynamic_entry_rangePvmtmP24dynamic_flags_attributes.part.0+0x40>
     c55:	b8 ff ff ff ff       	mov    eax,0xffffffff
     c5a:	48 83 c4 08          	add    rsp,0x8
     c5e:	5b                   	pop    rbx
     c5f:	5d                   	pop    rbp
     c60:	41 5c                	pop    r12
     c62:	41 5d                	pop    r13
     c64:	41 5e                	pop    r14
     c66:	41 5f                	pop    r15
     c68:	c3                   	ret    
     c69:	0f 1f 80 00 00 00 00 	nop    DWORD PTR [rax+0x0]
     c70:	48 05 38 01 00 00    	add    rax,0x138
     c76:	48 01 e8             	add    rax,rbp
     c79:	74 da                	je     c55 <_ZL25check_dynamic_entry_rangePvmtmP24dynamic_flags_attributes.part.0+0x65>
     c7b:	4d 89 c6             	mov    r14,r8
     c7e:	49 89 cd             	mov    r13,rcx
     c81:	49 89 ff             	mov    r15,rdi
     c84:	49 89 f4             	mov    r12,rsi
     c87:	e8 b3 5b 00 00       	call   683f <get_enclave_base>
     c8c:	49 89 d8             	mov    r8,rbx
     c8f:	49 c1 e0 05          	shl    r8,0x5
     c93:	49 01 e8             	add    r8,rbp
     c96:	49 8b 90 40 01 00 00 	mov    rdx,QWORD PTR [r8+0x140]
     c9d:	4c 01 ea             	add    rdx,r13
     ca0:	48 01 d0             	add    rax,rdx
     ca3:	41 8b 90 3c 01 00 00 	mov    edx,DWORD PTR [r8+0x13c]
     caa:	4c 39 f8             	cmp    rax,r15
     cad:	77 a6                	ja     c55 <_ZL25check_dynamic_entry_rangePvmtmP24dynamic_flags_attributes.part.0+0x65>
     caf:	4c 89 e6             	mov    rsi,r12
     cb2:	48 c1 e2 0c          	shl    rdx,0xc
     cb6:	48 c1 e6 0c          	shl    rsi,0xc
     cba:	48 01 c2             	add    rdx,rax
     cbd:	4a 8d 3c 3e          	lea    rdi,[rsi+r15*1]
     cc1:	48 39 d7             	cmp    rdi,rdx
     cc4:	77 8f                	ja     c55 <_ZL25check_dynamic_entry_rangePvmtmP24dynamic_flags_attributes.part.0+0x65>
     cc6:	31 c0                	xor    eax,eax
     cc8:	4d 85 f6             	test   r14,r14
     ccb:	74 8d                	je     c5a <_ZL25check_dynamic_entry_rangePvmtmP24dynamic_flags_attributes.part.0+0x6a>
     ccd:	48 83 c3 0a          	add    rbx,0xa
     cd1:	48 c1 e3 05          	shl    rbx,0x5
     cd5:	48 01 dd             	add    rbp,rbx
     cd8:	48 8b 55 10          	mov    rdx,QWORD PTR [rbp+0x10]
     cdc:	49 89 16             	mov    QWORD PTR [r14],rdx
     cdf:	41 0f b7 90 3a 01 00 	movzx  edx,WORD PTR [r8+0x13a]
     ce6:	00 
     ce7:	66 41 89 56 08       	mov    WORD PTR [r14+0x8],dx
     cec:	48 83 c4 08          	add    rsp,0x8
     cf0:	5b                   	pop    rbx
     cf1:	5d                   	pop    rbp
     cf2:	41 5c                	pop    r12
     cf4:	41 5d                	pop    r13
     cf6:	41 5e                	pop    r14
     cf8:	41 5f                	pop    r15
     cfa:	c3                   	ret    
     cfb:	0f 1f 44 00 00       	nop    DWORD PTR [rax+rax*1+0x0]
     d00:	b8 38 01 00 00       	mov    eax,0x138
     d05:	31 db                	xor    ebx,ebx
     d07:	e9 6a ff ff ff       	jmp    c76 <_ZL25check_dynamic_entry_rangePvmtmP24dynamic_flags_attributes.part.0+0x86>
     d0c:	0f 1f 40 00          	nop    DWORD PTR [rax+0x0]

0000000000000d10 <_ZL19check_dynamic_rangePvmPmP24dynamic_flags_attributes>:
     d10:	41 57                	push   r15
     d12:	49 89 f7             	mov    r15,rsi
     d15:	41 56                	push   r14
     d17:	49 c1 e7 0c          	shl    r15,0xc
     d1b:	41 55                	push   r13
     d1d:	41 54                	push   r12
     d1f:	4c 89 f8             	mov    rax,r15
     d22:	55                   	push   rbp
     d23:	53                   	push   rbx
     d24:	48 f7 d0             	not    rax
     d27:	48 83 ec 28          	sub    rsp,0x28
     d2b:	48 39 f8             	cmp    rax,rdi
     d2e:	0f 82 35 01 00 00    	jb     e69 <_ZL19check_dynamic_rangePvmPmP24dynamic_flags_attributes+0x159>
     d34:	48 89 fb             	mov    rbx,rdi
     d37:	48 89 cd             	mov    rbp,rcx
     d3a:	48 89 54 24 10       	mov    QWORD PTR [rsp+0x10],rdx
     d3f:	49 89 f4             	mov    r12,rsi
     d42:	e8 c9 15 00 00       	call   2310 <get_heap_base>
     d47:	49 89 c5             	mov    r13,rax
     d4a:	e8 41 16 00 00       	call   2390 <get_heap_min_size>
     d4f:	49 01 c5             	add    r13,rax
     d52:	e8 d9 15 00 00       	call   2330 <get_heap_size>
     d57:	49 89 c6             	mov    r14,rax
     d5a:	e8 31 16 00 00       	call   2390 <get_heap_min_size>
     d5f:	49 29 c6             	sub    r14,rax
     d62:	4c 39 eb             	cmp    rbx,r13
     d65:	72 39                	jb     da0 <_ZL19check_dynamic_rangePvmPmP24dynamic_flags_attributes+0x90>
     d67:	49 8d 04 1f          	lea    rax,[r15+rbx*1]
     d6b:	4b 8d 54 35 00       	lea    rdx,[r13+r14*1+0x0]
     d70:	48 39 d0             	cmp    rax,rdx
     d73:	77 2b                	ja     da0 <_ZL19check_dynamic_rangePvmPmP24dynamic_flags_attributes+0x90>
     d75:	48 85 ed             	test   rbp,rbp
     d78:	74 11                	je     d8b <_ZL19check_dynamic_rangePvmPmP24dynamic_flags_attributes+0x7b>
     d7a:	b8 08 00 00 00       	mov    eax,0x8
     d7f:	48 c7 45 00 03 02 00 	mov    QWORD PTR [rbp+0x0],0x203
     d86:	00 
     d87:	66 89 45 08          	mov    WORD PTR [rbp+0x8],ax
     d8b:	31 c0                	xor    eax,eax
     d8d:	48 83 c4 28          	add    rsp,0x28
     d91:	5b                   	pop    rbx
     d92:	5d                   	pop    rbp
     d93:	41 5c                	pop    r12
     d95:	41 5d                	pop    r13
     d97:	41 5e                	pop    r14
     d99:	41 5f                	pop    r15
     d9b:	c3                   	ret    
     d9c:	0f 1f 40 00          	nop    DWORD PTR [rax+0x0]
     da0:	31 c9                	xor    ecx,ecx
     da2:	49 89 e8             	mov    r8,rbp
     da5:	ba 07 00 00 00       	mov    edx,0x7
     daa:	4c 89 e6             	mov    rsi,r12
     dad:	48 89 df             	mov    rdi,rbx
     db0:	e8 3b fe ff ff       	call   bf0 <_ZL25check_dynamic_entry_rangePvmtmP24dynamic_flags_attributes.part.0>
     db5:	85 c0                	test   eax,eax
     db7:	74 d2                	je     d8b <_ZL19check_dynamic_rangePvmPmP24dynamic_flags_attributes+0x7b>
     db9:	48 8d 05 68 80 20 00 	lea    rax,[rip+0x208068]        # 208e28 <rsrv_mem_min_size>
     dc0:	48 8b 08             	mov    rcx,QWORD PTR [rax]
     dc3:	48 8d 05 6e 80 20 00 	lea    rax,[rip+0x20806e]        # 208e38 <rsrv_mem_base>
     dca:	48 8b 10             	mov    rdx,QWORD PTR [rax]
     dcd:	48 01 ca             	add    rdx,rcx
     dd0:	48 39 d3             	cmp    rbx,rdx
     dd3:	72 18                	jb     ded <_ZL19check_dynamic_rangePvmPmP24dynamic_flags_attributes+0xdd>
     dd5:	48 8d 05 54 80 20 00 	lea    rax,[rip+0x208054]        # 208e30 <rsrv_mem_size>
     ddc:	49 01 df             	add    r15,rbx
     ddf:	48 8b 00             	mov    rax,QWORD PTR [rax]
     de2:	48 29 c8             	sub    rax,rcx
     de5:	48 01 d0             	add    rax,rdx
     de8:	49 39 c7             	cmp    r15,rax
     deb:	76 88                	jbe    d75 <_ZL19check_dynamic_rangePvmPmP24dynamic_flags_attributes+0x65>
     ded:	48 8d 15 0c 5f 00 00 	lea    rdx,[rip+0x5f0c]        # 6d00 <g_global_data>
     df4:	8b 82 30 01 00 00    	mov    eax,DWORD PTR [rdx+0x130]
     dfa:	85 c0                	test   eax,eax
     dfc:	74 40                	je     e3e <_ZL19check_dynamic_rangePvmPmP24dynamic_flags_attributes+0x12e>
     dfe:	0f b7 82 38 01 00 00 	movzx  eax,WORD PTR [rdx+0x138]
     e05:	66 3d 13 10          	cmp    ax,0x1013
     e09:	0f 84 3b 01 00 00    	je     f4a <_ZL19check_dynamic_rangePvmPmP24dynamic_flags_attributes+0x23a>
     e0f:	31 c0                	xor    eax,eax
     e11:	eb 1e                	jmp    e31 <_ZL19check_dynamic_rangePvmPmP24dynamic_flags_attributes+0x121>
     e13:	0f 1f 44 00 00       	nop    DWORD PTR [rax+rax*1+0x0]
     e18:	41 89 c1             	mov    r9d,eax
     e1b:	49 c1 e1 05          	shl    r9,0x5
     e1f:	4a 8d 0c 0a          	lea    rcx,[rdx+r9*1]
     e23:	0f b7 89 38 01 00 00 	movzx  ecx,WORD PTR [rcx+0x138]
     e2a:	66 81 f9 13 10       	cmp    cx,0x1013
     e2f:	74 47                	je     e78 <_ZL19check_dynamic_rangePvmPmP24dynamic_flags_attributes+0x168>
     e31:	8b 8a 30 01 00 00    	mov    ecx,DWORD PTR [rdx+0x130]
     e37:	83 c0 01             	add    eax,0x1
     e3a:	39 c1                	cmp    ecx,eax
     e3c:	77 da                	ja     e18 <_ZL19check_dynamic_rangePvmPmP24dynamic_flags_attributes+0x108>
     e3e:	41 be 0e 00 00 00    	mov    r14d,0xe
     e44:	31 c9                	xor    ecx,ecx
     e46:	49 89 e8             	mov    r8,rbp
     e49:	44 89 f2             	mov    edx,r14d
     e4c:	4c 89 e6             	mov    rsi,r12
     e4f:	48 89 df             	mov    rdi,rbx
     e52:	e8 99 fd ff ff       	call   bf0 <_ZL25check_dynamic_entry_rangePvmtmP24dynamic_flags_attributes.part.0>
     e57:	85 c0                	test   eax,eax
     e59:	0f 84 d1 00 00 00    	je     f30 <_ZL19check_dynamic_rangePvmPmP24dynamic_flags_attributes+0x220>
     e5f:	41 83 c6 01          	add    r14d,0x1
     e63:	41 83 fe 13          	cmp    r14d,0x13
     e67:	75 db                	jne    e44 <_ZL19check_dynamic_rangePvmPmP24dynamic_flags_attributes+0x134>
     e69:	b8 ff ff ff ff       	mov    eax,0xffffffff
     e6e:	e9 1a ff ff ff       	jmp    d8d <_ZL19check_dynamic_rangePvmPmP24dynamic_flags_attributes+0x7d>
     e73:	0f 1f 44 00 00       	nop    DWORD PTR [rax+rax*1+0x0]
     e78:	49 81 c1 38 01 00 00 	add    r9,0x138
     e7f:	49 01 d1             	add    r9,rdx
     e82:	74 ba                	je     e3e <_ZL19check_dynamic_rangePvmPmP24dynamic_flags_attributes+0x12e>
     e84:	41 89 c1             	mov    r9d,eax
     e87:	c7 44 24 0c 0e 00 00 	mov    DWORD PTR [rsp+0xc],0xe
     e8e:	00 
     e8f:	49 c1 e1 05          	shl    r9,0x5
     e93:	4e 8d 3c 0a          	lea    r15,[rdx+r9*1]
     e97:	41 8b 87 3c 01 00 00 	mov    eax,DWORD PTR [r15+0x13c]
     e9e:	83 f8 ff             	cmp    eax,0xffffffff
     ea1:	74 75                	je     f18 <_ZL19check_dynamic_rangePvmPmP24dynamic_flags_attributes+0x208>
     ea3:	45 31 ed             	xor    r13d,r13d
     ea6:	eb 1b                	jmp    ec3 <_ZL19check_dynamic_rangePvmPmP24dynamic_flags_attributes+0x1b3>
     ea8:	0f 1f 84 00 00 00 00 	nop    DWORD PTR [rax+rax*1+0x0]
     eaf:	00 
     eb0:	41 8b 87 3c 01 00 00 	mov    eax,DWORD PTR [r15+0x13c]
     eb7:	41 83 c5 01          	add    r13d,0x1
     ebb:	83 c0 01             	add    eax,0x1
     ebe:	44 39 e8             	cmp    eax,r13d
     ec1:	76 55                	jbe    f18 <_ZL19check_dynamic_rangePvmPmP24dynamic_flags_attributes+0x208>
     ec3:	49 8b 8f 40 01 00 00 	mov    rcx,QWORD PTR [r15+0x140]
     eca:	45 89 ee             	mov    r14d,r13d
     ecd:	8b 54 24 0c          	mov    edx,DWORD PTR [rsp+0xc]
     ed1:	49 8d 87 40 01 00 00 	lea    rax,[r15+0x140]
     ed8:	49 89 e8             	mov    r8,rbp
     edb:	4c 89 e6             	mov    rsi,r12
     ede:	48 89 df             	mov    rdi,rbx
     ee1:	49 0f af ce          	imul   rcx,r14
     ee5:	48 89 44 24 18       	mov    QWORD PTR [rsp+0x18],rax
     eea:	e8 01 fd ff ff       	call   bf0 <_ZL25check_dynamic_entry_rangePvmtmP24dynamic_flags_attributes.part.0>
     eef:	85 c0                	test   eax,eax
     ef1:	75 bd                	jne    eb0 <_ZL19check_dynamic_rangePvmPmP24dynamic_flags_attributes+0x1a0>
     ef3:	48 8b 5c 24 10       	mov    rbx,QWORD PTR [rsp+0x10]
     ef8:	48 85 db             	test   rbx,rbx
     efb:	0f 84 8a fe ff ff    	je     d8b <_ZL19check_dynamic_rangePvmPmP24dynamic_flags_attributes+0x7b>
     f01:	48 8b 74 24 18       	mov    rsi,QWORD PTR [rsp+0x18]
     f06:	48 8b 16             	mov    rdx,QWORD PTR [rsi]
     f09:	4c 0f af f2          	imul   r14,rdx
     f0d:	4c 89 33             	mov    QWORD PTR [rbx],r14
     f10:	e9 78 fe ff ff       	jmp    d8d <_ZL19check_dynamic_rangePvmPmP24dynamic_flags_attributes+0x7d>
     f15:	0f 1f 00             	nop    DWORD PTR [rax]
     f18:	83 44 24 0c 01       	add    DWORD PTR [rsp+0xc],0x1
     f1d:	8b 44 24 0c          	mov    eax,DWORD PTR [rsp+0xc]
     f21:	83 f8 13             	cmp    eax,0x13
     f24:	0f 85 6d ff ff ff    	jne    e97 <_ZL19check_dynamic_rangePvmPmP24dynamic_flags_attributes+0x187>
     f2a:	e9 3a ff ff ff       	jmp    e69 <_ZL19check_dynamic_rangePvmPmP24dynamic_flags_attributes+0x159>
     f2f:	90                   	nop
     f30:	48 8b 5c 24 10       	mov    rbx,QWORD PTR [rsp+0x10]
     f35:	48 85 db             	test   rbx,rbx
     f38:	0f 84 4d fe ff ff    	je     d8b <_ZL19check_dynamic_rangePvmPmP24dynamic_flags_attributes+0x7b>
     f3e:	48 c7 03 00 00 00 00 	mov    QWORD PTR [rbx],0x0
     f45:	e9 43 fe ff ff       	jmp    d8d <_ZL19check_dynamic_rangePvmPmP24dynamic_flags_attributes+0x7d>
     f4a:	41 b9 38 01 00 00    	mov    r9d,0x138
     f50:	31 c0                	xor    eax,eax
     f52:	e9 28 ff ff ff       	jmp    e7f <_ZL19check_dynamic_rangePvmPmP24dynamic_flags_attributes+0x16f>
     f57:	66 0f 1f 84 00 00 00 	nop    WORD PTR [rax+rax*1+0x0]
     f5e:	00 00 

0000000000000f60 <is_dynamic_thread>:
     f60:	48 83 ec 28          	sub    rsp,0x28
     f64:	64 48 8b 04 25 28 00 	mov    rax,QWORD PTR fs:0x28
     f6b:	00 00 
     f6d:	48 89 44 24 18       	mov    QWORD PTR [rsp+0x18],rax
     f72:	31 c0                	xor    eax,eax
     f74:	48 85 ff             	test   rdi,rdi
     f77:	74 27                	je     fa0 <is_dynamic_thread+0x40>
     f79:	31 d2                	xor    edx,edx
     f7b:	48 89 e1             	mov    rcx,rsp
     f7e:	be 01 00 00 00       	mov    esi,0x1
     f83:	e8 88 fd ff ff       	call   d10 <_ZL19check_dynamic_rangePvmPmP24dynamic_flags_attributes>
     f88:	85 c0                	test   eax,eax
     f8a:	75 14                	jne    fa0 <is_dynamic_thread+0x40>
     f8c:	31 c0                	xor    eax,eax
     f8e:	48 81 3c 24 00 01 00 	cmp    QWORD PTR [rsp],0x100
     f95:	00 
     f96:	0f 94 c0             	sete   al
     f99:	eb 07                	jmp    fa2 <is_dynamic_thread+0x42>
     f9b:	0f 1f 44 00 00       	nop    DWORD PTR [rax+rax*1+0x0]
     fa0:	31 c0                	xor    eax,eax
     fa2:	48 8b 54 24 18       	mov    rdx,QWORD PTR [rsp+0x18]
     fa7:	64 48 33 14 25 28 00 	xor    rdx,QWORD PTR fs:0x28
     fae:	00 00 
     fb0:	75 05                	jne    fb7 <is_dynamic_thread+0x57>
     fb2:	48 83 c4 28          	add    rsp,0x28
     fb6:	c3                   	ret    
     fb7:	e8 e4 24 00 00       	call   34a0 <__stack_chk_fail>
     fbc:	0f 1f 40 00          	nop    DWORD PTR [rax+0x0]

0000000000000fc0 <is_dynamic_thread_exist>:
     fc0:	48 8d 05 31 7e 20 00 	lea    rax,[rip+0x207e31]        # 208df8 <EDMM_supported>
     fc7:	8b 00                	mov    eax,DWORD PTR [rax]
     fc9:	85 c0                	test   eax,eax
     fcb:	74 49                	je     1016 <is_dynamic_thread_exist+0x56>
     fcd:	48 8d 0d 2c 5d 00 00 	lea    rcx,[rip+0x5d2c]        # 6d00 <g_global_data>
     fd4:	8b 81 30 01 00 00    	mov    eax,DWORD PTR [rcx+0x130]
     fda:	85 c0                	test   eax,eax
     fdc:	74 36                	je     1014 <is_dynamic_thread_exist+0x54>
     fde:	0f b7 81 38 01 00 00 	movzx  eax,WORD PTR [rcx+0x138]
     fe5:	66 83 f8 12          	cmp    ax,0x12
     fe9:	74 45                	je     1030 <is_dynamic_thread_exist+0x70>
     feb:	31 c0                	xor    eax,eax
     fed:	eb 18                	jmp    1007 <is_dynamic_thread_exist+0x47>
     fef:	90                   	nop
     ff0:	89 c2                	mov    edx,eax
     ff2:	48 c1 e2 05          	shl    rdx,0x5
     ff6:	48 8d 34 11          	lea    rsi,[rcx+rdx*1]
     ffa:	0f b7 b6 38 01 00 00 	movzx  esi,WORD PTR [rsi+0x138]
    1001:	66 83 fe 12          	cmp    si,0x12
    1005:	74 19                	je     1020 <is_dynamic_thread_exist+0x60>
    1007:	8b 91 30 01 00 00    	mov    edx,DWORD PTR [rcx+0x130]
    100d:	83 c0 01             	add    eax,0x1
    1010:	39 c2                	cmp    edx,eax
    1012:	77 dc                	ja     ff0 <is_dynamic_thread_exist+0x30>
    1014:	31 c0                	xor    eax,eax
    1016:	f3 c3                	repz ret 
    1018:	0f 1f 84 00 00 00 00 	nop    DWORD PTR [rax+rax*1+0x0]
    101f:	00 
    1020:	48 81 c2 38 01 00 00 	add    rdx,0x138
    1027:	31 c0                	xor    eax,eax
    1029:	48 01 d1             	add    rcx,rdx
    102c:	0f 95 c0             	setne  al
    102f:	c3                   	ret    
    1030:	ba 38 01 00 00       	mov    edx,0x138
    1035:	eb f0                	jmp    1027 <is_dynamic_thread_exist+0x67>
    1037:	66 0f 1f 84 00 00 00 	nop    WORD PTR [rax+rax*1+0x0]
    103e:	00 00 

0000000000001040 <get_dynamic_stack_max_page>:
    1040:	48 8d 0d b9 5c 00 00 	lea    rcx,[rip+0x5cb9]        # 6d00 <g_global_data>
    1047:	8b 81 30 01 00 00    	mov    eax,DWORD PTR [rcx+0x130]
    104d:	85 c0                	test   eax,eax
    104f:	74 3d                	je     108e <get_dynamic_stack_max_page+0x4e>
    1051:	0f b7 81 38 01 00 00 	movzx  eax,WORD PTR [rcx+0x138]
    1058:	66 83 f8 07          	cmp    ax,0x7
    105c:	74 52                	je     10b0 <get_dynamic_stack_max_page+0x70>
    105e:	31 c0                	xor    eax,eax
    1060:	eb 1d                	jmp    107f <get_dynamic_stack_max_page+0x3f>
    1062:	66 0f 1f 44 00 00    	nop    WORD PTR [rax+rax*1+0x0]
    1068:	89 c2                	mov    edx,eax
    106a:	48 c1 e2 05          	shl    rdx,0x5
    106e:	48 8d 34 11          	lea    rsi,[rcx+rdx*1]
    1072:	0f b7 b6 38 01 00 00 	movzx  esi,WORD PTR [rsi+0x138]
    1079:	66 83 fe 07          	cmp    si,0x7
    107d:	74 11                	je     1090 <get_dynamic_stack_max_page+0x50>
    107f:	8b 91 30 01 00 00    	mov    edx,DWORD PTR [rcx+0x130]
    1085:	83 c0 01             	add    eax,0x1
    1088:	39 c2                	cmp    edx,eax
    108a:	77 dc                	ja     1068 <get_dynamic_stack_max_page+0x28>
    108c:	31 c0                	xor    eax,eax
    108e:	f3 c3                	repz ret 
    1090:	48 81 c2 38 01 00 00 	add    rdx,0x138
    1097:	48 01 ca             	add    rdx,rcx
    109a:	74 f0                	je     108c <get_dynamic_stack_max_page+0x4c>
    109c:	48 c1 e0 05          	shl    rax,0x5
    10a0:	48 01 c8             	add    rax,rcx
    10a3:	8b 80 3c 01 00 00    	mov    eax,DWORD PTR [rax+0x13c]
    10a9:	c3                   	ret    
    10aa:	66 0f 1f 44 00 00    	nop    WORD PTR [rax+rax*1+0x0]
    10b0:	ba 38 01 00 00       	mov    edx,0x138
    10b5:	31 c0                	xor    eax,eax
    10b7:	eb de                	jmp    1097 <get_dynamic_stack_max_page+0x57>
    10b9:	0f 1f 80 00 00 00 00 	nop    DWORD PTR [rax+0x0]

00000000000010c0 <sgx_accept_forward>:
    10c0:	4c 8d 54 24 08       	lea    r10,[rsp+0x8]
    10c5:	48 83 e4 c0          	and    rsp,0xffffffffffffffc0
    10c9:	41 ff 72 f8          	push   QWORD PTR [r10-0x8]
    10cd:	55                   	push   rbp
    10ce:	48 89 e5             	mov    rbp,rsp
    10d1:	41 55                	push   r13
    10d3:	41 54                	push   r12
    10d5:	41 52                	push   r10
    10d7:	53                   	push   rbx
    10d8:	48 81 ec 90 00 00 00 	sub    rsp,0x90
    10df:	48 89 bd 50 ff ff ff 	mov    QWORD PTR [rbp-0xb0],rdi
    10e6:	48 c7 85 58 ff ff ff 	mov    QWORD PTR [rbp-0xa8],0x0
    10ed:	00 00 00 00 
    10f1:	64 48 8b 04 25 28 00 	mov    rax,QWORD PTR fs:0x28
    10f8:	00 00 
    10fa:	48 89 45 c8          	mov    QWORD PTR [rbp-0x38],rax
    10fe:	31 c0                	xor    eax,eax
    1100:	48 39 d6             	cmp    rsi,rdx
    1103:	48 c7 85 60 ff ff ff 	mov    QWORD PTR [rbp-0xa0],0x0
    110a:	00 00 00 00 
    110e:	48 c7 85 68 ff ff ff 	mov    QWORD PTR [rbp-0x98],0x0
    1115:	00 00 00 00 
    1119:	48 c7 85 70 ff ff ff 	mov    QWORD PTR [rbp-0x90],0x0
    1120:	00 00 00 00 
    1124:	48 c7 85 78 ff ff ff 	mov    QWORD PTR [rbp-0x88],0x0
    112b:	00 00 00 00 
    112f:	48 c7 45 80 00 00 00 	mov    QWORD PTR [rbp-0x80],0x0
    1136:	00 
    1137:	48 c7 45 88 00 00 00 	mov    QWORD PTR [rbp-0x78],0x0
    113e:	00 
    113f:	73 2a                	jae    116b <sgx_accept_forward+0xab>
    1141:	4c 8d ad 50 ff ff ff 	lea    r13,[rbp-0xb0]
    1148:	48 89 f3             	mov    rbx,rsi
    114b:	49 89 d4             	mov    r12,rdx
    114e:	66 90                	xchg   ax,ax
    1150:	48 89 de             	mov    rsi,rbx
    1153:	4c 89 ef             	mov    rdi,r13
    1156:	e8 00 5a 00 00       	call   6b5b <do_eaccept>
    115b:	85 c0                	test   eax,eax
    115d:	75 31                	jne    1190 <sgx_accept_forward+0xd0>
    115f:	48 81 c3 00 10 00 00 	add    rbx,0x1000
    1166:	49 39 dc             	cmp    r12,rbx
    1169:	77 e5                	ja     1150 <sgx_accept_forward+0x90>
    116b:	31 c0                	xor    eax,eax
    116d:	48 8b 4d c8          	mov    rcx,QWORD PTR [rbp-0x38]
    1171:	64 48 33 0c 25 28 00 	xor    rcx,QWORD PTR fs:0x28
    1178:	00 00 
    117a:	75 19                	jne    1195 <sgx_accept_forward+0xd5>
    117c:	48 81 c4 90 00 00 00 	add    rsp,0x90
    1183:	5b                   	pop    rbx
    1184:	41 5a                	pop    r10
    1186:	41 5c                	pop    r12
    1188:	41 5d                	pop    r13
    118a:	5d                   	pop    rbp
    118b:	49 8d 62 f8          	lea    rsp,[r10-0x8]
    118f:	c3                   	ret    
    1190:	e8 14 5a 00 00       	call   6ba9 <abort>
    1195:	e8 06 23 00 00       	call   34a0 <__stack_chk_fail>
    119a:	66 0f 1f 44 00 00    	nop    WORD PTR [rax+rax*1+0x0]

00000000000011a0 <_Z18accept_post_removePVK9_layout_tS1_m>:
    11a0:	48 39 f7             	cmp    rdi,rsi
    11a3:	0f 83 d7 00 00 00    	jae    1280 <_Z18accept_post_removePVK9_layout_tS1_m+0xe0>
    11a9:	41 56                	push   r14
    11ab:	41 55                	push   r13
    11ad:	41 54                	push   r12
    11af:	49 89 d4             	mov    r12,rdx
    11b2:	55                   	push   rbp
    11b3:	48 89 f5             	mov    rbp,rsi
    11b6:	53                   	push   rbx
    11b7:	48 89 fb             	mov    rbx,rdi
    11ba:	eb 19                	jmp    11d5 <_Z18accept_post_removePVK9_layout_tS1_m+0x35>
    11bc:	0f 1f 40 00          	nop    DWORD PTR [rax+0x0]
    11c0:	0f b7 03             	movzx  eax,WORD PTR [rbx]
    11c3:	f6 c4 10             	test   ah,0x10
    11c6:	75 58                	jne    1220 <_Z18accept_post_removePVK9_layout_tS1_m+0x80>
    11c8:	48 83 c3 20          	add    rbx,0x20
    11cc:	48 39 dd             	cmp    rbp,rbx
    11cf:	0f 86 97 00 00 00    	jbe    126c <_Z18accept_post_removePVK9_layout_tS1_m+0xcc>
    11d5:	0f b7 03             	movzx  eax,WORD PTR [rbx]
    11d8:	f6 c4 10             	test   ah,0x10
    11db:	75 e3                	jne    11c0 <_Z18accept_post_removePVK9_layout_tS1_m+0x20>
    11dd:	0f b7 43 02          	movzx  eax,WORD PTR [rbx+0x2]
    11e1:	a8 10                	test   al,0x10
    11e3:	74 db                	je     11c0 <_Z18accept_post_removePVK9_layout_tS1_m+0x20>
    11e5:	48 8b 73 08          	mov    rsi,QWORD PTR [rbx+0x8]
    11e9:	4e 8d 2c 26          	lea    r13,[rsi+r12*1]
    11ed:	e8 4d 56 00 00       	call   683f <get_enclave_base>
    11f2:	8b 53 04             	mov    edx,DWORD PTR [rbx+0x4]
    11f5:	4a 8d 34 28          	lea    rsi,[rax+r13*1]
    11f9:	bf 10 04 00 00       	mov    edi,0x410
    11fe:	48 c1 e2 0c          	shl    rdx,0xc
    1202:	48 01 f2             	add    rdx,rsi
    1205:	e8 b6 fe ff ff       	call   10c0 <sgx_accept_forward>
    120a:	85 c0                	test   eax,eax
    120c:	74 ba                	je     11c8 <_Z18accept_post_removePVK9_layout_tS1_m+0x28>
    120e:	5b                   	pop    rbx
    120f:	5d                   	pop    rbp
    1210:	41 5c                	pop    r12
    1212:	41 5d                	pop    r13
    1214:	41 5e                	pop    r14
    1216:	c3                   	ret    
    1217:	66 0f 1f 84 00 00 00 	nop    WORD PTR [rax+rax*1+0x0]
    121e:	00 00 
    1220:	8b 43 04             	mov    eax,DWORD PTR [rbx+0x4]
    1223:	85 c0                	test   eax,eax
    1225:	74 a1                	je     11c8 <_Z18accept_post_removePVK9_layout_tS1_m+0x28>
    1227:	45 31 f6             	xor    r14d,r14d
    122a:	45 31 ed             	xor    r13d,r13d
    122d:	48 8b 43 08          	mov    rax,QWORD PTR [rbx+0x8]
    1231:	0f b7 7b 02          	movzx  edi,WORD PTR [rbx+0x2]
    1235:	48 89 de             	mov    rsi,rbx
    1238:	49 01 c5             	add    r13,rax
    123b:	f7 df                	neg    edi
    123d:	4c 89 ea             	mov    rdx,r13
    1240:	48 63 ff             	movsxd rdi,edi
    1243:	48 c1 e7 05          	shl    rdi,0x5
    1247:	48 01 df             	add    rdi,rbx
    124a:	e8 51 ff ff ff       	call   11a0 <_Z18accept_post_removePVK9_layout_tS1_m>
    124f:	85 c0                	test   eax,eax
    1251:	75 bb                	jne    120e <_Z18accept_post_removePVK9_layout_tS1_m+0x6e>
    1253:	8b 43 04             	mov    eax,DWORD PTR [rbx+0x4]
    1256:	41 83 c6 01          	add    r14d,0x1
    125a:	44 39 f0             	cmp    eax,r14d
    125d:	77 ce                	ja     122d <_Z18accept_post_removePVK9_layout_tS1_m+0x8d>
    125f:	48 83 c3 20          	add    rbx,0x20
    1263:	48 39 dd             	cmp    rbp,rbx
    1266:	0f 87 69 ff ff ff    	ja     11d5 <_Z18accept_post_removePVK9_layout_tS1_m+0x35>
    126c:	5b                   	pop    rbx
    126d:	31 c0                	xor    eax,eax
    126f:	5d                   	pop    rbp
    1270:	41 5c                	pop    r12
    1272:	41 5d                	pop    r13
    1274:	41 5e                	pop    r14
    1276:	c3                   	ret    
    1277:	66 0f 1f 84 00 00 00 	nop    WORD PTR [rax+rax*1+0x0]
    127e:	00 00 
    1280:	31 c0                	xor    eax,eax
    1282:	c3                   	ret    
    1283:	66 2e 0f 1f 84 00 00 	nop    WORD PTR cs:[rax+rax*1+0x0]
    128a:	00 00 00 
    128d:	0f 1f 00             	nop    DWORD PTR [rax]

0000000000001290 <apply_pages_within_exception>:
    1290:	4c 8d 54 24 08       	lea    r10,[rsp+0x8]
    1295:	48 83 e4 c0          	and    rsp,0xffffffffffffffc0
    1299:	41 ff 72 f8          	push   QWORD PTR [r10-0x8]
    129d:	55                   	push   rbp
    129e:	48 89 e5             	mov    rbp,rsp
    12a1:	41 56                	push   r14
    12a3:	41 55                	push   r13
    12a5:	41 54                	push   r12
    12a7:	41 52                	push   r10
    12a9:	53                   	push   rbx
    12aa:	48 81 ec 88 00 00 00 	sub    rsp,0x88
    12b1:	64 48 8b 04 25 28 00 	mov    rax,QWORD PTR fs:0x28
    12b8:	00 00 
    12ba:	48 89 45 c8          	mov    QWORD PTR [rbp-0x38],rax
    12be:	31 c0                	xor    eax,eax
    12c0:	48 85 ff             	test   rdi,rdi
    12c3:	0f 84 ca 00 00 00    	je     1393 <apply_pages_within_exception+0x103>
    12c9:	31 c9                	xor    ecx,ecx
    12cb:	31 d2                	xor    edx,edx
    12cd:	48 89 fb             	mov    rbx,rdi
    12d0:	49 89 f4             	mov    r12,rsi
    12d3:	e8 38 fa ff ff       	call   d10 <_ZL19check_dynamic_rangePvmPmP24dynamic_flags_attributes>
    12d8:	85 c0                	test   eax,eax
    12da:	41 89 c5             	mov    r13d,eax
    12dd:	0f 85 b0 00 00 00    	jne    1393 <apply_pages_within_exception+0x103>
    12e3:	49 c1 e4 0c          	shl    r12,0xc
    12e7:	48 c7 85 50 ff ff ff 	mov    QWORD PTR [rbp-0xb0],0x20b
    12ee:	0b 02 00 00 
    12f2:	48 c7 85 58 ff ff ff 	mov    QWORD PTR [rbp-0xa8],0x0
    12f9:	00 00 00 00 
    12fd:	49 01 dc             	add    r12,rbx
    1300:	48 c7 85 60 ff ff ff 	mov    QWORD PTR [rbp-0xa0],0x0
    1307:	00 00 00 00 
    130b:	48 c7 85 68 ff ff ff 	mov    QWORD PTR [rbp-0x98],0x0
    1312:	00 00 00 00 
    1316:	4c 39 e3             	cmp    rbx,r12
    1319:	48 c7 85 70 ff ff ff 	mov    QWORD PTR [rbp-0x90],0x0
    1320:	00 00 00 00 
    1324:	48 c7 85 78 ff ff ff 	mov    QWORD PTR [rbp-0x88],0x0
    132b:	00 00 00 00 
    132f:	48 c7 45 80 00 00 00 	mov    QWORD PTR [rbp-0x80],0x0
    1336:	00 
    1337:	48 c7 45 88 00 00 00 	mov    QWORD PTR [rbp-0x78],0x0
    133e:	00 
    133f:	73 2a                	jae    136b <apply_pages_within_exception+0xdb>
    1341:	4c 8d b5 50 ff ff ff 	lea    r14,[rbp-0xb0]
    1348:	0f 1f 84 00 00 00 00 	nop    DWORD PTR [rax+rax*1+0x0]
    134f:	00 
    1350:	48 89 de             	mov    rsi,rbx
    1353:	4c 89 f7             	mov    rdi,r14
    1356:	e8 00 58 00 00       	call   6b5b <do_eaccept>
    135b:	85 c0                	test   eax,eax
    135d:	75 3c                	jne    139b <apply_pages_within_exception+0x10b>
    135f:	48 81 c3 00 10 00 00 	add    rbx,0x1000
    1366:	49 39 dc             	cmp    r12,rbx
    1369:	77 e5                	ja     1350 <apply_pages_within_exception+0xc0>
    136b:	48 8b 55 c8          	mov    rdx,QWORD PTR [rbp-0x38]
    136f:	64 48 33 14 25 28 00 	xor    rdx,QWORD PTR fs:0x28
    1376:	00 00 
    1378:	44 89 e8             	mov    eax,r13d
    137b:	75 23                	jne    13a0 <apply_pages_within_exception+0x110>
    137d:	48 81 c4 88 00 00 00 	add    rsp,0x88
    1384:	5b                   	pop    rbx
    1385:	41 5a                	pop    r10
    1387:	41 5c                	pop    r12
    1389:	41 5d                	pop    r13
    138b:	41 5e                	pop    r14
    138d:	5d                   	pop    rbp
    138e:	49 8d 62 f8          	lea    rsp,[r10-0x8]
    1392:	c3                   	ret    
    1393:	41 bd ff ff ff ff    	mov    r13d,0xffffffff
    1399:	eb d0                	jmp    136b <apply_pages_within_exception+0xdb>
    139b:	e8 09 58 00 00       	call   6ba9 <abort>
    13a0:	e8 fb 20 00 00       	call   34a0 <__stack_chk_fail>
    13a5:	66 2e 0f 1f 84 00 00 	nop    WORD PTR cs:[rax+rax*1+0x0]
    13ac:	00 00 00 
    13af:	90                   	nop

00000000000013b0 <apply_EPC_pages>:
    13b0:	55                   	push   rbp
    13b1:	53                   	push   rbx
    13b2:	48 83 ec 28          	sub    rsp,0x28
    13b6:	64 48 8b 04 25 28 00 	mov    rax,QWORD PTR fs:0x28
    13bd:	00 00 
    13bf:	48 89 44 24 18       	mov    QWORD PTR [rsp+0x18],rax
    13c4:	31 c0                	xor    eax,eax
    13c6:	48 85 ff             	test   rdi,rdi
    13c9:	74 55                	je     1420 <apply_EPC_pages+0x70>
    13cb:	31 d2                	xor    edx,edx
    13cd:	48 89 e1             	mov    rcx,rsp
    13d0:	48 89 fd             	mov    rbp,rdi
    13d3:	48 89 f3             	mov    rbx,rsi
    13d6:	e8 35 f9 ff ff       	call   d10 <_ZL19check_dynamic_rangePvmPmP24dynamic_flags_attributes>
    13db:	85 c0                	test   eax,eax
    13dd:	75 41                	jne    1420 <apply_EPC_pages+0x70>
    13df:	48 c1 e3 0c          	shl    rbx,0xc
    13e3:	f6 44 24 08 40       	test   BYTE PTR [rsp+0x8],0x40
    13e8:	48 89 ee             	mov    rsi,rbp
    13eb:	48 8d 14 2b          	lea    rdx,[rbx+rbp*1]
    13ef:	bf 0b 02 00 00       	mov    edi,0x20b
    13f4:	75 22                	jne    1418 <apply_EPC_pages+0x68>
    13f6:	e8 15 f7 ff ff       	call   b10 <_ZL19sgx_accept_backwardmmm>
    13fb:	48 8b 74 24 18       	mov    rsi,QWORD PTR [rsp+0x18]
    1400:	64 48 33 34 25 28 00 	xor    rsi,QWORD PTR fs:0x28
    1407:	00 00 
    1409:	75 1c                	jne    1427 <apply_EPC_pages+0x77>
    140b:	48 83 c4 28          	add    rsp,0x28
    140f:	5b                   	pop    rbx
    1410:	5d                   	pop    rbp
    1411:	c3                   	ret    
    1412:	66 0f 1f 44 00 00    	nop    WORD PTR [rax+rax*1+0x0]
    1418:	e8 a3 fc ff ff       	call   10c0 <sgx_accept_forward>
    141d:	eb dc                	jmp    13fb <apply_EPC_pages+0x4b>
    141f:	90                   	nop
    1420:	b8 ff ff ff ff       	mov    eax,0xffffffff
    1425:	eb d4                	jmp    13fb <apply_EPC_pages+0x4b>
    1427:	e8 74 20 00 00       	call   34a0 <__stack_chk_fail>
    142c:	0f 1f 40 00          	nop    DWORD PTR [rax+0x0]

0000000000001430 <trim_EPC_pages>:
    1430:	48 85 ff             	test   rdi,rdi
    1433:	74 65                	je     149a <trim_EPC_pages+0x6a>
    1435:	55                   	push   rbp
    1436:	53                   	push   rbx
    1437:	31 c9                	xor    ecx,ecx
    1439:	31 d2                	xor    edx,edx
    143b:	48 89 f5             	mov    rbp,rsi
    143e:	48 89 fb             	mov    rbx,rdi
    1441:	48 83 ec 08          	sub    rsp,0x8
    1445:	e8 c6 f8 ff ff       	call   d10 <_ZL19check_dynamic_rangePvmPmP24dynamic_flags_attributes>
    144a:	85 c0                	test   eax,eax
    144c:	75 45                	jne    1493 <trim_EPC_pages+0x63>
    144e:	48 c1 e5 0c          	shl    rbp,0xc
    1452:	48 89 df             	mov    rdi,rbx
    1455:	48 01 dd             	add    rbp,rbx
    1458:	48 89 ee             	mov    rsi,rbp
    145b:	e8 10 0e 00 00       	call   2270 <trim_range_ocall>
    1460:	48 89 ea             	mov    rdx,rbp
    1463:	48 89 de             	mov    rsi,rbx
    1466:	bf 10 04 00 00       	mov    edi,0x410
    146b:	e8 50 fc ff ff       	call   10c0 <sgx_accept_forward>
    1470:	48 39 eb             	cmp    rbx,rbp
    1473:	73 17                	jae    148c <trim_EPC_pages+0x5c>
    1475:	0f 1f 00             	nop    DWORD PTR [rax]
    1478:	48 89 df             	mov    rdi,rbx
    147b:	48 81 c3 00 10 00 00 	add    rbx,0x1000
    1482:	e8 49 0e 00 00       	call   22d0 <trim_range_commit_ocall>
    1487:	48 39 dd             	cmp    rbp,rbx
    148a:	77 ec                	ja     1478 <trim_EPC_pages+0x48>
    148c:	48 83 c4 08          	add    rsp,0x8
    1490:	5b                   	pop    rbx
    1491:	5d                   	pop    rbp
    1492:	c3                   	ret    
    1493:	b8 ff ff ff ff       	mov    eax,0xffffffff
    1498:	eb f2                	jmp    148c <trim_EPC_pages+0x5c>
    149a:	b8 ff ff ff ff       	mov    eax,0xffffffff
    149f:	c3                   	ret    

00000000000014a0 <do_add_thread>:
    14a0:	41 56                	push   r14
    14a2:	41 55                	push   r13
    14a4:	41 54                	push   r12
    14a6:	55                   	push   rbp
    14a7:	53                   	push   rbx
    14a8:	48 89 fb             	mov    rbx,rdi
    14ab:	48 83 ec 10          	sub    rsp,0x10
    14af:	64 48 8b 04 25 28 00 	mov    rax,QWORD PTR fs:0x28
    14b6:	00 00 
    14b8:	48 89 44 24 08       	mov    QWORD PTR [rsp+0x8],rax
    14bd:	31 c0                	xor    eax,eax
    14bf:	48 c7 04 24 00 00 00 	mov    QWORD PTR [rsp],0x0
    14c6:	00 
    14c7:	e8 73 53 00 00       	call   683f <get_enclave_base>
    14cc:	31 c9                	xor    ecx,ecx
    14ce:	48 89 e2             	mov    rdx,rsp
    14d1:	be 01 00 00 00       	mov    esi,0x1
    14d6:	48 89 df             	mov    rdi,rbx
    14d9:	48 89 c5             	mov    rbp,rax
    14dc:	e8 2f f8 ff ff       	call   d10 <_ZL19check_dynamic_rangePvmPmP24dynamic_flags_attributes>
    14e1:	85 c0                	test   eax,eax
    14e3:	75 51                	jne    1536 <do_add_thread+0x96>
    14e5:	4c 8d 25 14 58 00 00 	lea    r12,[rip+0x5814]        # 6d00 <g_global_data>
    14ec:	41 8b 84 24 30 01 00 	mov    eax,DWORD PTR [r12+0x130]
    14f3:	00 
    14f4:	85 c0                	test   eax,eax
    14f6:	74 3e                	je     1536 <do_add_thread+0x96>
    14f8:	41 0f b7 84 24 38 01 	movzx  eax,WORD PTR [r12+0x138]
    14ff:	00 00 
    1501:	66 83 f8 0e          	cmp    ax,0xe
    1505:	0f 84 ae 01 00 00    	je     16b9 <do_add_thread+0x219>
    150b:	31 c0                	xor    eax,eax
    150d:	eb 18                	jmp    1527 <do_add_thread+0x87>
    150f:	90                   	nop
    1510:	89 c2                	mov    edx,eax
    1512:	48 c1 e2 05          	shl    rdx,0x5
    1516:	49 8d 0c 14          	lea    rcx,[r12+rdx*1]
    151a:	0f b7 89 38 01 00 00 	movzx  ecx,WORD PTR [rcx+0x138]
    1521:	66 83 f9 0e          	cmp    cx,0xe
    1525:	74 39                	je     1560 <do_add_thread+0xc0>
    1527:	41 8b 94 24 30 01 00 	mov    edx,DWORD PTR [r12+0x130]
    152e:	00 
    152f:	83 c0 01             	add    eax,0x1
    1532:	39 c2                	cmp    edx,eax
    1534:	77 da                	ja     1510 <do_add_thread+0x70>
    1536:	b8 01 00 00 00       	mov    eax,0x1
    153b:	48 8b 74 24 08       	mov    rsi,QWORD PTR [rsp+0x8]
    1540:	64 48 33 34 25 28 00 	xor    rsi,QWORD PTR fs:0x28
    1547:	00 00 
    1549:	0f 85 76 01 00 00    	jne    16c5 <do_add_thread+0x225>
    154f:	48 83 c4 10          	add    rsp,0x10
    1553:	5b                   	pop    rbx
    1554:	5d                   	pop    rbp
    1555:	41 5c                	pop    r12
    1557:	41 5d                	pop    r13
    1559:	41 5e                	pop    r14
    155b:	c3                   	ret    
    155c:	0f 1f 40 00          	nop    DWORD PTR [rax+0x0]
    1560:	48 81 c2 38 01 00 00 	add    rdx,0x138
    1567:	4c 01 e2             	add    rdx,r12
    156a:	74 ca                	je     1536 <do_add_thread+0x96>
    156c:	48 c1 e0 05          	shl    rax,0x5
    1570:	4c 8b 2c 24          	mov    r13,QWORD PTR [rsp]
    1574:	4c 01 e0             	add    rax,r12
    1577:	48 8b 80 40 01 00 00 	mov    rax,QWORD PTR [rax+0x140]
    157e:	49 01 ed             	add    r13,rbp
    1581:	49 01 c5             	add    r13,rax
    1584:	4c 39 eb             	cmp    rbx,r13
    1587:	75 ad                	jne    1536 <do_add_thread+0x96>
    1589:	41 be 0e 00 00 00    	mov    r14d,0xe
    158f:	90                   	nop
    1590:	41 8b 84 24 30 01 00 	mov    eax,DWORD PTR [r12+0x130]
    1597:	00 
    1598:	85 c0                	test   eax,eax
    159a:	74 46                	je     15e2 <do_add_thread+0x142>
    159c:	41 0f b7 84 24 38 01 	movzx  eax,WORD PTR [r12+0x138]
    15a3:	00 00 
    15a5:	66 44 39 f0          	cmp    ax,r14w
    15a9:	0f 84 01 01 00 00    	je     16b0 <do_add_thread+0x210>
    15af:	31 c0                	xor    eax,eax
    15b1:	eb 20                	jmp    15d3 <do_add_thread+0x133>
    15b3:	0f 1f 44 00 00       	nop    DWORD PTR [rax+rax*1+0x0]
    15b8:	89 c2                	mov    edx,eax
    15ba:	48 c1 e2 05          	shl    rdx,0x5
    15be:	49 8d 0c 14          	lea    rcx,[r12+rdx*1]
    15c2:	0f b7 89 38 01 00 00 	movzx  ecx,WORD PTR [rcx+0x138]
    15c9:	66 44 39 f1          	cmp    cx,r14w
    15cd:	0f 84 85 00 00 00    	je     1658 <do_add_thread+0x1b8>
    15d3:	41 8b 94 24 30 01 00 	mov    edx,DWORD PTR [r12+0x130]
    15da:	00 
    15db:	83 c0 01             	add    eax,0x1
    15de:	39 c2                	cmp    edx,eax
    15e0:	77 d6                	ja     15b8 <do_add_thread+0x118>
    15e2:	41 83 c6 01          	add    r14d,0x1
    15e6:	66 41 83 fe 13       	cmp    r14w,0x13
    15eb:	75 a3                	jne    1590 <do_add_thread+0xf0>
    15ed:	49 8d b4 24 e8 00 00 	lea    rsi,[r12+0xe8]
    15f4:	00 
    15f5:	ba 48 00 00 00       	mov    edx,0x48
    15fa:	48 89 df             	mov    rdi,rbx
    15fd:	e8 1e 44 00 00       	call   5a20 <memcpy>
    1602:	4c 89 e8             	mov    rax,r13
    1605:	31 ff                	xor    edi,edi
    1607:	48 89 de             	mov    rsi,rbx
    160a:	48 29 e8             	sub    rax,rbp
    160d:	48 01 43 10          	add    QWORD PTR [rbx+0x10],rax
    1611:	4c 89 e8             	mov    rax,r13
    1614:	48 29 e8             	sub    rax,rbp
    1617:	48 01 43 30          	add    QWORD PTR [rbx+0x30],rax
    161b:	4c 89 e8             	mov    rax,r13
    161e:	48 29 e8             	sub    rax,rbp
    1621:	48 01 43 38          	add    QWORD PTR [rbx+0x38],rax
    1625:	e8 36 0b 00 00       	call   2160 <sgx_ocall>
    162a:	85 c0                	test   eax,eax
    162c:	0f 85 04 ff ff ff    	jne    1536 <do_add_thread+0x96>
    1632:	49 8d 95 00 10 00 00 	lea    rdx,[r13+0x1000]
    1639:	4c 89 ee             	mov    rsi,r13
    163c:	bf 10 01 00 00       	mov    edi,0x110
    1641:	e8 ca f4 ff ff       	call   b10 <_ZL19sgx_accept_backwardmmm>
    1646:	85 c0                	test   eax,eax
    1648:	0f 95 c0             	setne  al
    164b:	0f b6 c0             	movzx  eax,al
    164e:	e9 e8 fe ff ff       	jmp    153b <do_add_thread+0x9b>
    1653:	0f 1f 44 00 00       	nop    DWORD PTR [rax+rax*1+0x0]
    1658:	48 81 c2 38 01 00 00 	add    rdx,0x138
    165f:	4c 01 e2             	add    rdx,r12
    1662:	0f 84 7a ff ff ff    	je     15e2 <do_add_thread+0x142>
    1668:	48 c1 e0 05          	shl    rax,0x5
    166c:	4c 01 e0             	add    rax,r12
    166f:	0f b7 90 3a 01 00 00 	movzx  edx,WORD PTR [rax+0x13a]
    1676:	83 e2 20             	and    edx,0x20
    1679:	0f 84 63 ff ff ff    	je     15e2 <do_add_thread+0x142>
    167f:	48 8b 3c 24          	mov    rdi,QWORD PTR [rsp]
    1683:	8b b0 3c 01 00 00    	mov    esi,DWORD PTR [rax+0x13c]
    1689:	48 8b 80 40 01 00 00 	mov    rax,QWORD PTR [rax+0x140]
    1690:	48 01 ef             	add    rdi,rbp
    1693:	48 01 c7             	add    rdi,rax
    1696:	e8 15 fd ff ff       	call   13b0 <apply_EPC_pages>
    169b:	85 c0                	test   eax,eax
    169d:	0f 84 3f ff ff ff    	je     15e2 <do_add_thread+0x142>
    16a3:	e9 8e fe ff ff       	jmp    1536 <do_add_thread+0x96>
    16a8:	0f 1f 84 00 00 00 00 	nop    DWORD PTR [rax+rax*1+0x0]
    16af:	00 
    16b0:	ba 38 01 00 00       	mov    edx,0x138
    16b5:	31 c0                	xor    eax,eax
    16b7:	eb a6                	jmp    165f <do_add_thread+0x1bf>
    16b9:	ba 38 01 00 00       	mov    edx,0x138
    16be:	31 c0                	xor    eax,eax
    16c0:	e9 a2 fe ff ff       	jmp    1567 <do_add_thread+0xc7>
    16c5:	e8 d6 1d 00 00       	call   34a0 <__stack_chk_fail>
    16ca:	66 0f 1f 44 00 00    	nop    WORD PTR [rax+rax*1+0x0]

00000000000016d0 <_pthread_thread_run>:
    16d0:	31 c0                	xor    eax,eax
    16d2:	c3                   	ret    
    16d3:	66 2e 0f 1f 84 00 00 	nop    WORD PTR cs:[rax+rax*1+0x0]
    16da:	00 00 00 
    16dd:	0f 1f 00             	nop    DWORD PTR [rax]

00000000000016e0 <_ZL11do_save_tcsPv>:
    16e0:	55                   	push   rbp
    16e1:	53                   	push   rbx
    16e2:	48 89 fb             	mov    rbx,rdi
    16e5:	48 83 ec 18          	sub    rsp,0x18
    16e9:	64 48 8b 04 25 28 00 	mov    rax,QWORD PTR fs:0x28
    16f0:	00 00 
    16f2:	48 89 44 24 08       	mov    QWORD PTR [rsp+0x8],rax
    16f7:	31 c0                	xor    eax,eax
    16f9:	48 83 3d c7 79 20 00 	cmp    QWORD PTR [rip+0x2079c7],0x0        # 2090c8 <_ZL12g_tcs_cookie>
    1700:	00 
    1701:	74 4d                	je     1750 <_ZL11do_save_tcsPv+0x70>
    1703:	bf 10 00 00 00       	mov    edi,0x10
    1708:	e8 93 1e 00 00       	call   35a0 <dlmalloc>
    170d:	48 89 c2             	mov    rdx,rax
    1710:	b8 01 00 00 00       	mov    eax,0x1
    1715:	48 85 d2             	test   rdx,rdx
    1718:	74 1e                	je     1738 <_ZL11do_save_tcsPv+0x58>
    171a:	48 33 1d a7 79 20 00 	xor    rbx,QWORD PTR [rip+0x2079a7]        # 2090c8 <_ZL12g_tcs_cookie>
    1721:	48 8b 05 a8 79 20 00 	mov    rax,QWORD PTR [rip+0x2079a8]        # 2090d0 <_ZL10g_tcs_node>
    1728:	48 89 15 a1 79 20 00 	mov    QWORD PTR [rip+0x2079a1],rdx        # 2090d0 <_ZL10g_tcs_node>
    172f:	48 89 42 08          	mov    QWORD PTR [rdx+0x8],rax
    1733:	31 c0                	xor    eax,eax
    1735:	48 89 1a             	mov    QWORD PTR [rdx],rbx
    1738:	48 8b 4c 24 08       	mov    rcx,QWORD PTR [rsp+0x8]
    173d:	64 48 33 0c 25 28 00 	xor    rcx,QWORD PTR fs:0x28
    1744:	00 00 
    1746:	75 5a                	jne    17a2 <_ZL11do_save_tcsPv+0xc2>
    1748:	48 83 c4 18          	add    rsp,0x18
    174c:	5b                   	pop    rbx
    174d:	5d                   	pop    rbp
    174e:	c3                   	ret    
    174f:	90                   	nop
    1750:	48 c7 04 24 00 00 00 	mov    QWORD PTR [rsp],0x0
    1757:	00 
    1758:	48 89 e5             	mov    rbp,rsp
    175b:	eb 0c                	jmp    1769 <_ZL11do_save_tcsPv+0x89>
    175d:	0f 1f 00             	nop    DWORD PTR [rax]
    1760:	48 8b 04 24          	mov    rax,QWORD PTR [rsp]
    1764:	48 85 c0             	test   rax,rax
    1767:	75 1f                	jne    1788 <_ZL11do_save_tcsPv+0xa8>
    1769:	be 08 00 00 00       	mov    esi,0x8
    176e:	48 89 ef             	mov    rdi,rbp
    1771:	e8 1a f2 ff ff       	call   990 <sgx_read_rand>
    1776:	85 c0                	test   eax,eax
    1778:	74 e6                	je     1760 <_ZL11do_save_tcsPv+0x80>
    177a:	b8 01 00 00 00       	mov    eax,0x1
    177f:	eb b7                	jmp    1738 <_ZL11do_save_tcsPv+0x58>
    1781:	0f 1f 80 00 00 00 00 	nop    DWORD PTR [rax+0x0]
    1788:	48 83 3d 38 79 20 00 	cmp    QWORD PTR [rip+0x207938],0x0        # 2090c8 <_ZL12g_tcs_cookie>
    178f:	00 
    1790:	0f 85 6d ff ff ff    	jne    1703 <_ZL11do_save_tcsPv+0x23>
    1796:	48 89 05 2b 79 20 00 	mov    QWORD PTR [rip+0x20792b],rax        # 2090c8 <_ZL12g_tcs_cookie>
    179d:	e9 61 ff ff ff       	jmp    1703 <_ZL11do_save_tcsPv+0x23>
    17a2:	e8 f9 1c 00 00       	call   34a0 <__stack_chk_fail>
    17a7:	66 0f 1f 84 00 00 00 	nop    WORD PTR [rax+rax*1+0x0]
    17ae:	00 00 

00000000000017b0 <_ZL18add_static_threadsPVK9_layout_tS1_m>:
    17b0:	48 39 f7             	cmp    rdi,rsi
    17b3:	0f 83 cf 00 00 00    	jae    1888 <_ZL18add_static_threadsPVK9_layout_tS1_m+0xd8>
    17b9:	41 56                	push   r14
    17bb:	41 55                	push   r13
    17bd:	41 54                	push   r12
    17bf:	49 89 d4             	mov    r12,rdx
    17c2:	55                   	push   rbp
    17c3:	48 89 f5             	mov    rbp,rsi
    17c6:	53                   	push   rbx
    17c7:	48 89 fb             	mov    rbx,rdi
    17ca:	eb 11                	jmp    17dd <_ZL18add_static_threadsPVK9_layout_tS1_m+0x2d>
    17cc:	0f 1f 40 00          	nop    DWORD PTR [rax+0x0]
    17d0:	48 83 c3 20          	add    rbx,0x20
    17d4:	48 39 dd             	cmp    rbp,rbx
    17d7:	0f 86 9b 00 00 00    	jbe    1878 <_ZL18add_static_threadsPVK9_layout_tS1_m+0xc8>
    17dd:	0f b7 03             	movzx  eax,WORD PTR [rbx]
    17e0:	f6 c4 10             	test   ah,0x10
    17e3:	75 13                	jne    17f8 <_ZL18add_static_threadsPVK9_layout_tS1_m+0x48>
    17e5:	48 8b 43 18          	mov    rax,QWORD PTR [rbx+0x18]
    17e9:	f6 c4 01             	test   ah,0x1
    17ec:	74 0a                	je     17f8 <_ZL18add_static_threadsPVK9_layout_tS1_m+0x48>
    17ee:	0f b7 43 02          	movzx  eax,WORD PTR [rbx+0x2]
    17f2:	66 83 f8 03          	cmp    ax,0x3
    17f6:	74 50                	je     1848 <_ZL18add_static_threadsPVK9_layout_tS1_m+0x98>
    17f8:	0f b7 03             	movzx  eax,WORD PTR [rbx]
    17fb:	f6 c4 10             	test   ah,0x10
    17fe:	74 d0                	je     17d0 <_ZL18add_static_threadsPVK9_layout_tS1_m+0x20>
    1800:	8b 43 04             	mov    eax,DWORD PTR [rbx+0x4]
    1803:	85 c0                	test   eax,eax
    1805:	74 c9                	je     17d0 <_ZL18add_static_threadsPVK9_layout_tS1_m+0x20>
    1807:	45 31 f6             	xor    r14d,r14d
    180a:	45 31 ed             	xor    r13d,r13d
    180d:	48 8b 43 08          	mov    rax,QWORD PTR [rbx+0x8]
    1811:	0f b7 7b 02          	movzx  edi,WORD PTR [rbx+0x2]
    1815:	48 89 de             	mov    rsi,rbx
    1818:	49 01 c5             	add    r13,rax
    181b:	f7 df                	neg    edi
    181d:	4c 89 ea             	mov    rdx,r13
    1820:	48 63 ff             	movsxd rdi,edi
    1823:	48 c1 e7 05          	shl    rdi,0x5
    1827:	48 01 df             	add    rdi,rbx
    182a:	e8 81 ff ff ff       	call   17b0 <_ZL18add_static_threadsPVK9_layout_tS1_m>
    182f:	85 c0                	test   eax,eax
    1831:	75 38                	jne    186b <_ZL18add_static_threadsPVK9_layout_tS1_m+0xbb>
    1833:	8b 43 04             	mov    eax,DWORD PTR [rbx+0x4]
    1836:	41 83 c6 01          	add    r14d,0x1
    183a:	44 39 f0             	cmp    eax,r14d
    183d:	77 ce                	ja     180d <_ZL18add_static_threadsPVK9_layout_tS1_m+0x5d>
    183f:	eb 8f                	jmp    17d0 <_ZL18add_static_threadsPVK9_layout_tS1_m+0x20>
    1841:	0f 1f 80 00 00 00 00 	nop    DWORD PTR [rax+0x0]
    1848:	48 8b 7b 08          	mov    rdi,QWORD PTR [rbx+0x8]
    184c:	4e 8d 2c 27          	lea    r13,[rdi+r12*1]
    1850:	e8 ea 4f 00 00       	call   683f <get_enclave_base>
    1855:	4a 8d 3c 28          	lea    rdi,[rax+r13*1]
    1859:	e8 82 fe ff ff       	call   16e0 <_ZL11do_save_tcsPv>
    185e:	85 c0                	test   eax,eax
    1860:	0f 84 6a ff ff ff    	je     17d0 <_ZL18add_static_threadsPVK9_layout_tS1_m+0x20>
    1866:	b8 ff ff ff ff       	mov    eax,0xffffffff
    186b:	5b                   	pop    rbx
    186c:	5d                   	pop    rbp
    186d:	41 5c                	pop    r12
    186f:	41 5d                	pop    r13
    1871:	41 5e                	pop    r14
    1873:	c3                   	ret    
    1874:	0f 1f 40 00          	nop    DWORD PTR [rax+0x0]
    1878:	5b                   	pop    rbx
    1879:	31 c0                	xor    eax,eax
    187b:	5d                   	pop    rbp
    187c:	41 5c                	pop    r12
    187e:	41 5d                	pop    r13
    1880:	41 5e                	pop    r14
    1882:	c3                   	ret    
    1883:	0f 1f 44 00 00       	nop    DWORD PTR [rax+rax*1+0x0]
    1888:	31 c0                	xor    eax,eax
    188a:	c3                   	ret    
    188b:	0f 1f 44 00 00       	nop    DWORD PTR [rax+rax*1+0x0]

0000000000001890 <_ZL10trts_ecalljPv>:
    1890:	0f b6 05 69 77 20 00 	movzx  eax,BYTE PTR [rip+0x207769]        # 209000 <_ZL16g_is_first_ecall>
    1897:	41 54                	push   r12
    1899:	55                   	push   rbp
    189a:	48 89 f5             	mov    rbp,rsi
    189d:	53                   	push   rbx
    189e:	89 fb                	mov    ebx,edi
    18a0:	84 c0                	test   al,al
    18a2:	0f 85 c8 00 00 00    	jne    1970 <_ZL10trts_ecalljPv+0xe0>
    18a8:	83 fb fa             	cmp    ebx,0xfffffffa
    18ab:	74 73                	je     1920 <_ZL10trts_ecalljPv+0x90>
    18ad:	4c 8d 25 1c 75 20 00 	lea    r12,[rip+0x20751c]        # 208dd0 <g_ecall_table>
    18b4:	49 3b 1c 24          	cmp    rbx,QWORD PTR [r12]
    18b8:	73 7e                	jae    1938 <_ZL10trts_ecalljPv+0xa8>
    18ba:	e8 bb 4f 00 00       	call   687a <get_thread_data>
    18bf:	0f ae e8             	lfence 
    18c2:	48 8b 50 08          	mov    rdx,QWORD PTR [rax+0x8]
    18c6:	48 3b 50 10          	cmp    rdx,QWORD PTR [rax+0x10]
    18ca:	0f 84 80 00 00 00    	je     1950 <_ZL10trts_ecalljPv+0xc0>
    18d0:	48 81 7a 20 44 49 43 	cmp    QWORD PTR [rdx+0x20],0x4f434944
    18d7:	4f 
    18d8:	0f 85 3e 01 00 00    	jne    1a1c <_ZL10trts_ecalljPv+0x18c>
    18de:	48 8d 05 3b 53 00 00 	lea    rax,[rip+0x533b]        # 6c20 <g_dyn_entry_table>
    18e5:	48 8b 52 28          	mov    rdx,QWORD PTR [rdx+0x28]
    18e9:	48 3b 10             	cmp    rdx,QWORD PTR [rax]
    18ec:	73 4a                	jae    1938 <_ZL10trts_ecalljPv+0xa8>
    18ee:	49 0f af 14 24       	imul   rdx,QWORD PTR [r12]
    18f3:	48 01 d8             	add    rax,rbx
    18f6:	80 7c 02 08 00       	cmp    BYTE PTR [rdx+rax*1+0x8],0x0
    18fb:	74 62                	je     195f <_ZL10trts_ecalljPv+0xcf>
    18fd:	48 c1 e3 04          	shl    rbx,0x4
    1901:	31 f6                	xor    esi,esi
    1903:	49 8b 5c 1c 08       	mov    rbx,QWORD PTR [r12+rbx*1+0x8]
    1908:	48 89 df             	mov    rdi,rbx
    190b:	e8 a0 ee ff ff       	call   7b0 <sgx_is_within_enclave>
    1910:	85 c0                	test   eax,eax
    1912:	0f 84 e8 00 00 00    	je     1a00 <_ZL10trts_ecalljPv+0x170>
    1918:	48 89 d8             	mov    rax,rbx
    191b:	eb 0a                	jmp    1927 <_ZL10trts_ecalljPv+0x97>
    191d:	0f 1f 00             	nop    DWORD PTR [rax]
    1920:	48 8d 05 a9 fd ff ff 	lea    rax,[rip+0xfffffffffffffda9]        # 16d0 <_pthread_thread_run>
    1927:	0f ae e8             	lfence 
    192a:	48 89 ef             	mov    rdi,rbp
    192d:	5b                   	pop    rbx
    192e:	5d                   	pop    rbp
    192f:	41 5c                	pop    r12
    1931:	ff e0                	jmp    rax
    1933:	0f 1f 44 00 00       	nop    DWORD PTR [rax+rax*1+0x0]
    1938:	41 bc 01 10 00 00    	mov    r12d,0x1001
    193e:	44 89 e0             	mov    eax,r12d
    1941:	5b                   	pop    rbx
    1942:	5d                   	pop    rbp
    1943:	41 5c                	pop    r12
    1945:	c3                   	ret    
    1946:	66 2e 0f 1f 84 00 00 	nop    WORD PTR cs:[rax+rax*1+0x0]
    194d:	00 00 00 
    1950:	48 89 d8             	mov    rax,rbx
    1953:	48 c1 e0 04          	shl    rax,0x4
    1957:	41 80 7c 04 10 00    	cmp    BYTE PTR [r12+rax*1+0x10],0x0
    195d:	74 9e                	je     18fd <_ZL10trts_ecalljPv+0x6d>
    195f:	41 bc 07 10 00 00    	mov    r12d,0x1007
    1965:	44 89 e0             	mov    eax,r12d
    1968:	5b                   	pop    rbx
    1969:	5d                   	pop    rbp
    196a:	41 5c                	pop    r12
    196c:	c3                   	ret    
    196d:	0f 1f 00             	nop    DWORD PTR [rax]
    1970:	e8 05 4f 00 00       	call   687a <get_thread_data>
    1975:	48 8b 48 10          	mov    rcx,QWORD PTR [rax+0x10]
    1979:	48 39 48 08          	cmp    QWORD PTR [rax+0x8],rcx
    197d:	75 e0                	jne    195f <_ZL10trts_ecalljPv+0xcf>
    197f:	48 8d 3d 3e 77 20 00 	lea    rdi,[rip+0x20773e]        # 2090c4 <_ZL10g_ife_lock>
    1986:	e8 c5 42 00 00       	call   5c50 <sgx_spin_lock>
    198b:	0f b6 05 6e 76 20 00 	movzx  eax,BYTE PTR [rip+0x20766e]        # 209000 <_ZL16g_is_first_ecall>
    1992:	84 c0                	test   al,al
    1994:	74 52                	je     19e8 <_ZL10trts_ecalljPv+0x158>
    1996:	48 8d 05 5b 74 20 00 	lea    rax,[rip+0x20745b]        # 208df8 <EDMM_supported>
    199d:	8b 00                	mov    eax,DWORD PTR [rax]
    199f:	85 c0                	test   eax,eax
    19a1:	74 39                	je     19dc <_ZL10trts_ecalljPv+0x14c>
    19a3:	48 8d 05 56 53 00 00 	lea    rax,[rip+0x5356]        # 6d00 <g_global_data>
    19aa:	31 d2                	xor    edx,edx
    19ac:	8b b0 30 01 00 00    	mov    esi,DWORD PTR [rax+0x130]
    19b2:	48 8d b8 38 01 00 00 	lea    rdi,[rax+0x138]
    19b9:	48 c1 e6 05          	shl    rsi,0x5
    19bd:	48 01 fe             	add    rsi,rdi
    19c0:	e8 eb fd ff ff       	call   17b0 <_ZL18add_static_threadsPVK9_layout_tS1_m>
    19c5:	85 c0                	test   eax,eax
    19c7:	75 37                	jne    1a00 <_ZL10trts_ecalljPv+0x170>
    19c9:	48 8d 3d 30 e6 ff ff 	lea    rdi,[rip+0xffffffffffffe630]        # 0 <enclave.so>
    19d0:	e8 cb 16 00 00       	call   30a0 <change_protection>
    19d5:	85 c0                	test   eax,eax
    19d7:	41 89 c4             	mov    r12d,eax
    19da:	75 2f                	jne    1a0b <_ZL10trts_ecalljPv+0x17b>
    19dc:	e8 2f 19 00 00       	call   3310 <init_global_object>
    19e1:	c6 05 18 76 20 00 00 	mov    BYTE PTR [rip+0x207618],0x0        # 209000 <_ZL16g_is_first_ecall>
    19e8:	48 8d 3d d5 76 20 00 	lea    rdi,[rip+0x2076d5]        # 2090c4 <_ZL10g_ife_lock>
    19ef:	e8 bc 42 00 00       	call   5cb0 <sgx_spin_unlock>
    19f4:	e9 af fe ff ff       	jmp    18a8 <_ZL10trts_ecalljPv+0x18>
    19f9:	0f 1f 80 00 00 00 00 	nop    DWORD PTR [rax+0x0]
    1a00:	41 bc 01 00 00 00    	mov    r12d,0x1
    1a06:	e9 33 ff ff ff       	jmp    193e <_ZL10trts_ecalljPv+0xae>
    1a0b:	48 8d 3d b2 76 20 00 	lea    rdi,[rip+0x2076b2]        # 2090c4 <_ZL10g_ife_lock>
    1a12:	e8 99 42 00 00       	call   5cb0 <sgx_spin_unlock>
    1a17:	e9 22 ff ff ff       	jmp    193e <_ZL10trts_ecalljPv+0xae>
    1a1c:	e8 88 51 00 00       	call   6ba9 <abort>
    1a21:	66 2e 0f 1f 84 00 00 	nop    WORD PTR cs:[rax+rax*1+0x0]
    1a28:	00 00 00 
    1a2b:	0f 1f 44 00 00       	nop    DWORD PTR [rax+rax*1+0x0]

0000000000001a30 <_Z30_random_stack_noinline_wrapperI9_status_tJjPvEJRiRS1_EET_PFS4_DpT0_EDpOT1_.isra.0.constprop.3>:
    1a30:	e9 5b fe ff ff       	jmp    1890 <_ZL10trts_ecalljPv>
    1a35:	66 2e 0f 1f 84 00 00 	nop    WORD PTR cs:[rax+rax*1+0x0]
    1a3c:	00 00 00 
    1a3f:	90                   	nop

0000000000001a40 <_Z16_pthread_enabledv>:
    1a40:	31 c0                	xor    eax,eax
    1a42:	c3                   	ret    
    1a43:	66 2e 0f 1f 84 00 00 	nop    WORD PTR cs:[rax+rax*1+0x0]
    1a4a:	00 00 00 
    1a4d:	0f 1f 00             	nop    DWORD PTR [rax]

0000000000001a50 <_Z24_pthread_tls_store_state9_status_t>:
    1a50:	f3 c3                	repz ret 
    1a52:	66 2e 0f 1f 84 00 00 	nop    WORD PTR cs:[rax+rax*1+0x0]
    1a59:	00 00 00 
    1a5c:	0f 1f 40 00          	nop    DWORD PTR [rax+0x0]

0000000000001a60 <_Z22_pthread_tls_get_statev>:
    1a60:	31 c0                	xor    eax,eax
    1a62:	c3                   	ret    
    1a63:	66 2e 0f 1f 84 00 00 	nop    WORD PTR cs:[rax+rax*1+0x0]
    1a6a:	00 00 00 
    1a6d:	0f 1f 00             	nop    DWORD PTR [rax]

0000000000001a70 <_Z26_pthread_tls_store_contextPv>:
    1a70:	f3 c3                	repz ret 
    1a72:	66 2e 0f 1f 84 00 00 	nop    WORD PTR cs:[rax+rax*1+0x0]
    1a79:	00 00 00 
    1a7c:	0f 1f 40 00          	nop    DWORD PTR [rax+0x0]

0000000000001a80 <_Z20_pthread_wakeup_joinPv>:
    1a80:	f3 c3                	repz ret 
    1a82:	66 2e 0f 1f 84 00 00 	nop    WORD PTR cs:[rax+rax*1+0x0]
    1a89:	00 00 00 
    1a8c:	0f 1f 40 00          	nop    DWORD PTR [rax+0x0]

0000000000001a90 <_Z24_pthread_tls_destructorsv>:
    1a90:	f3 c3                	repz ret 
    1a92:	66 2e 0f 1f 84 00 00 	nop    WORD PTR cs:[rax+rax*1+0x0]
    1a99:	00 00 00 
    1a9c:	0f 1f 40 00          	nop    DWORD PTR [rax+0x0]

0000000000001aa0 <do_init_thread>:
    1aa0:	41 57                	push   r15
    1aa2:	41 56                	push   r14
    1aa4:	ba a0 00 00 00       	mov    edx,0xa0
    1aa9:	41 55                	push   r13
    1aab:	41 54                	push   r12
    1aad:	41 89 f4             	mov    r12d,esi
    1ab0:	55                   	push   rbp
    1ab1:	53                   	push   rbx
    1ab2:	48 89 fd             	mov    rbp,rdi
    1ab5:	48 83 ec 28          	sub    rsp,0x28
    1ab9:	64 48 8b 04 25 28 00 	mov    rax,QWORD PTR fs:0x28
    1ac0:	00 00 
    1ac2:	48 89 44 24 18       	mov    QWORD PTR [rsp+0x18],rax
    1ac7:	31 c0                	xor    eax,eax
    1ac9:	48 8d 05 30 52 00 00 	lea    rax,[rip+0x5230]        # 6d00 <g_global_data>
    1ad0:	48 8b 58 48          	mov    rbx,QWORD PTR [rax+0x48]
    1ad4:	48 8d 70 48          	lea    rsi,[rax+0x48]
    1ad8:	48 01 fb             	add    rbx,rdi
    1adb:	48 89 df             	mov    rdi,rbx
    1ade:	4c 8b 7b 28          	mov    r15,QWORD PTR [rbx+0x28]
    1ae2:	4c 8b 73 30          	mov    r14,QWORD PTR [rbx+0x30]
    1ae6:	4c 8b ab 98 00 00 00 	mov    r13,QWORD PTR [rbx+0x98]
    1aed:	e8 2e 3f 00 00       	call   5a20 <memcpy>
    1af2:	48 8b 53 18          	mov    rdx,QWORD PTR [rbx+0x18]
    1af6:	48 8d 85 50 fd ff ff 	lea    rax,[rbp-0x2b0]
    1afd:	48 01 2b             	add    QWORD PTR [rbx],rbp
    1b00:	48 01 6b 20          	add    QWORD PTR [rbx+0x20],rbp
    1b04:	4c 89 7b 28          	mov    QWORD PTR [rbx+0x28],r15
    1b08:	48 01 6b 58          	add    QWORD PTR [rbx+0x58],rbp
    1b0c:	4c 89 73 30          	mov    QWORD PTR [rbx+0x30],r14
    1b10:	48 01 ea             	add    rdx,rbp
    1b13:	48 01 6b 50          	add    QWORD PTR [rbx+0x50],rbp
    1b17:	48 89 53 18          	mov    QWORD PTR [rbx+0x18],rdx
    1b1b:	48 89 93 98 00 00 00 	mov    QWORD PTR [rbx+0x98],rdx
    1b22:	48 8b 53 08          	mov    rdx,QWORD PTR [rbx+0x8]
    1b26:	48 01 c2             	add    rdx,rax
    1b29:	48 03 43 10          	add    rax,QWORD PTR [rbx+0x10]
    1b2d:	48 89 53 08          	mov    QWORD PTR [rbx+0x8],rdx
    1b31:	48 89 43 10          	mov    QWORD PTR [rbx+0x10],rax
    1b35:	48 8d 05 ac 72 20 00 	lea    rax,[rip+0x2072ac]        # 208de8 <__intel_security_cookie>
    1b3c:	48 8b 00             	mov    rax,QWORD PTR [rax]
    1b3f:	48 89 85 58 fd fe ff 	mov    QWORD PTR [rbp-0x102a8],rax
    1b46:	48 8d 05 ab 72 20 00 	lea    rax,[rip+0x2072ab]        # 208df8 <EDMM_supported>
    1b4d:	8b 00                	mov    eax,DWORD PTR [rax]
    1b4f:	85 c0                	test   eax,eax
    1b51:	0f 84 89 00 00 00    	je     1be0 <do_init_thread+0x140>
    1b57:	45 84 e4             	test   r12b,r12b
    1b5a:	0f 84 90 00 00 00    	je     1bf0 <do_init_thread+0x150>
    1b60:	4d 85 ed             	test   r13,r13
    1b63:	48 c7 43 30 01 00 00 	mov    QWORD PTR [rbx+0x30],0x1
    1b6a:	00 
    1b6b:	75 78                	jne    1be5 <do_init_thread+0x145>
    1b6d:	e8 ce f4 ff ff       	call   1040 <get_dynamic_stack_max_page>
    1b72:	89 c0                	mov    eax,eax
    1b74:	48 c1 e0 0c          	shl    rax,0xc
    1b78:	48 01 83 98 00 00 00 	add    QWORD PTR [rbx+0x98],rax
    1b7f:	90                   	nop
    1b80:	48 8d 3d 79 e4 ff ff 	lea    rdi,[rip+0xffffffffffffe479]        # 0 <enclave.so>
    1b87:	48 8d 54 24 10       	lea    rdx,[rsp+0x10]
    1b8c:	48 8d 74 24 08       	lea    rsi,[rsp+0x8]
    1b91:	48 c7 44 24 08 00 00 	mov    QWORD PTR [rsp+0x8],0x0
    1b98:	00 00 
    1b9a:	48 c7 44 24 10 00 00 	mov    QWORD PTR [rsp+0x10],0x0
    1ba1:	00 00 
    1ba3:	e8 98 12 00 00       	call   2e40 <elf_tls_info>
    1ba8:	85 c0                	test   eax,eax
    1baa:	ba 01 00 00 00       	mov    edx,0x1
    1baf:	75 0a                	jne    1bbb <do_init_thread+0x11b>
    1bb1:	48 83 7c 24 08 00    	cmp    QWORD PTR [rsp+0x8],0x0
    1bb7:	75 57                	jne    1c10 <do_init_thread+0x170>
    1bb9:	31 d2                	xor    edx,edx
    1bbb:	48 8b 4c 24 18       	mov    rcx,QWORD PTR [rsp+0x18]
    1bc0:	64 48 33 0c 25 28 00 	xor    rcx,QWORD PTR fs:0x28
    1bc7:	00 00 
    1bc9:	89 d0                	mov    eax,edx
    1bcb:	0f 85 8c 00 00 00    	jne    1c5d <do_init_thread+0x1bd>
    1bd1:	48 83 c4 28          	add    rsp,0x28
    1bd5:	5b                   	pop    rbx
    1bd6:	5d                   	pop    rbp
    1bd7:	41 5c                	pop    r12
    1bd9:	41 5d                	pop    r13
    1bdb:	41 5e                	pop    r14
    1bdd:	41 5f                	pop    r15
    1bdf:	c3                   	ret    
    1be0:	4d 85 ed             	test   r13,r13
    1be3:	74 9b                	je     1b80 <do_init_thread+0xe0>
    1be5:	4c 89 ab 98 00 00 00 	mov    QWORD PTR [rbx+0x98],r13
    1bec:	eb 92                	jmp    1b80 <do_init_thread+0xe0>
    1bee:	66 90                	xchg   ax,ax
    1bf0:	4d 85 ed             	test   r13,r13
    1bf3:	75 f0                	jne    1be5 <do_init_thread+0x145>
    1bf5:	48 89 ef             	mov    rdi,rbp
    1bf8:	e8 63 f3 ff ff       	call   f60 <is_dynamic_thread>
    1bfd:	85 c0                	test   eax,eax
    1bff:	0f 85 68 ff ff ff    	jne    1b6d <do_init_thread+0xcd>
    1c05:	e9 76 ff ff ff       	jmp    1b80 <do_init_thread+0xe0>
    1c0a:	66 0f 1f 44 00 00    	nop    WORD PTR [rax+rax*1+0x0]
    1c10:	48 8b 03             	mov    rax,QWORD PTR [rbx]
    1c13:	48 8b 7b 50          	mov    rdi,QWORD PTR [rbx+0x50]
    1c17:	31 f6                	xor    esi,esi
    1c19:	48 8d 90 ff 0f 00 00 	lea    rdx,[rax+0xfff]
    1c20:	48 29 fa             	sub    rdx,rdi
    1c23:	48 81 e7 00 f0 ff ff 	and    rdi,0xfffffffffffff000
    1c2a:	48 81 e2 00 f0 ff ff 	and    rdx,0xfffffffffffff000
    1c31:	e8 37 3e 00 00       	call   5a6d <memset>
    1c36:	48 8b 7b 50          	mov    rdi,QWORD PTR [rbx+0x50]
    1c3a:	48 8b 03             	mov    rax,QWORD PTR [rbx]
    1c3d:	48 8b 54 24 10       	mov    rdx,QWORD PTR [rsp+0x10]
    1c42:	48 29 f8             	sub    rax,rdi
    1c45:	48 39 c2             	cmp    rdx,rax
    1c48:	0f 87 6b ff ff ff    	ja     1bb9 <do_init_thread+0x119>
    1c4e:	48 8b 74 24 08       	mov    rsi,QWORD PTR [rsp+0x8]
    1c53:	e8 c8 3d 00 00       	call   5a20 <memcpy>
    1c58:	e9 5c ff ff ff       	jmp    1bb9 <do_init_thread+0x119>
    1c5d:	e8 3e 18 00 00       	call   34a0 <__stack_chk_fail>
    1c62:	66 2e 0f 1f 84 00 00 	nop    WORD PTR cs:[rax+rax*1+0x0]
    1c69:	00 00 00 
    1c6c:	0f 1f 40 00          	nop    DWORD PTR [rax+0x0]

0000000000001c70 <do_ecall>:
    1c70:	55                   	push   rbp
    1c71:	53                   	push   rbx
    1c72:	48 89 d5             	mov    rbp,rdx
    1c75:	bb 01 00 00 00       	mov    ebx,0x1
    1c7a:	48 83 ec 78          	sub    rsp,0x78
    1c7e:	64 48 8b 04 25 28 00 	mov    rax,QWORD PTR fs:0x28
    1c85:	00 00 
    1c87:	48 89 44 24 68       	mov    QWORD PTR [rsp+0x68],rax
    1c8c:	31 c0                	xor    eax,eax
    1c8e:	89 7c 24 14          	mov    DWORD PTR [rsp+0x14],edi
    1c92:	48 89 74 24 08       	mov    QWORD PTR [rsp+0x8],rsi
    1c97:	e8 ab 4b 00 00       	call   6847 <get_enclave_state>
    1c9c:	83 f8 02             	cmp    eax,0x2
    1c9f:	74 1f                	je     1cc0 <do_ecall+0x50>
    1ca1:	48 8b 4c 24 68       	mov    rcx,QWORD PTR [rsp+0x68]
    1ca6:	64 48 33 0c 25 28 00 	xor    rcx,QWORD PTR fs:0x28
    1cad:	00 00 
    1caf:	89 d8                	mov    eax,ebx
    1cb1:	0f 85 4f 01 00 00    	jne    1e06 <do_ecall+0x196>
    1cb7:	48 83 c4 78          	add    rsp,0x78
    1cbb:	5b                   	pop    rbx
    1cbc:	5d                   	pop    rbp
    1cbd:	c3                   	ret    
    1cbe:	66 90                	xchg   ax,ax
    1cc0:	e8 b5 4b 00 00       	call   687a <get_thread_data>
    1cc5:	48 85 c0             	test   rax,rax
    1cc8:	74 4a                	je     1d14 <do_ecall+0xa4>
    1cca:	48 8b 48 08          	mov    rcx,QWORD PTR [rax+0x8]
    1cce:	48 39 48 10          	cmp    QWORD PTR [rax+0x10],rcx
    1cd2:	74 2c                	je     1d00 <do_ecall+0x90>
    1cd4:	e8 a1 4b 00 00       	call   687a <get_thread_data>
    1cd9:	48 8b 50 08          	mov    rdx,QWORD PTR [rax+0x8]
    1cdd:	48 39 50 10          	cmp    QWORD PTR [rax+0x10],rdx
    1ce1:	48 89 44 24 18       	mov    QWORD PTR [rsp+0x18],rax
    1ce6:	74 48                	je     1d30 <do_ecall+0xc0>
    1ce8:	48 8b 74 24 08       	mov    rsi,QWORD PTR [rsp+0x8]
    1ced:	8b 7c 24 14          	mov    edi,DWORD PTR [rsp+0x14]
    1cf1:	e8 9a fb ff ff       	call   1890 <_ZL10trts_ecalljPv>
    1cf6:	89 c3                	mov    ebx,eax
    1cf8:	eb a7                	jmp    1ca1 <do_ecall+0x31>
    1cfa:	66 0f 1f 44 00 00    	nop    WORD PTR [rax+rax*1+0x0]
    1d00:	48 8d 05 f9 4f 00 00 	lea    rax,[rip+0x4ff9]        # 6d00 <g_global_data>
    1d07:	48 8b 40 38          	mov    rax,QWORD PTR [rax+0x38]
    1d0b:	48 85 c0             	test   rax,rax
    1d0e:	0f 84 7c 00 00 00    	je     1d90 <do_ecall+0x120>
    1d14:	31 f6                	xor    esi,esi
    1d16:	48 89 ef             	mov    rdi,rbp
    1d19:	e8 82 fd ff ff       	call   1aa0 <do_init_thread>
    1d1e:	85 c0                	test   eax,eax
    1d20:	89 c3                	mov    ebx,eax
    1d22:	74 b0                	je     1cd4 <do_ecall+0x64>
    1d24:	e9 78 ff ff ff       	jmp    1ca1 <do_ecall+0x31>
    1d29:	0f 1f 80 00 00 00 00 	nop    DWORD PTR [rax+0x0]
    1d30:	e8 0b fd ff ff       	call   1a40 <_Z16_pthread_enabledv>
    1d35:	84 c0                	test   al,al
    1d37:	74 77                	je     1db0 <do_ecall+0x140>
    1d39:	66 0f ef c0          	pxor   xmm0,xmm0
    1d3d:	48 8d 7c 24 20       	lea    rdi,[rsp+0x20]
    1d42:	0f 29 44 24 20       	movaps XMMWORD PTR [rsp+0x20],xmm0
    1d47:	0f 29 44 24 30       	movaps XMMWORD PTR [rsp+0x30],xmm0
    1d4c:	0f 29 44 24 40       	movaps XMMWORD PTR [rsp+0x40],xmm0
    1d51:	0f 29 44 24 50       	movaps XMMWORD PTR [rsp+0x50],xmm0
    1d56:	e8 5e 3f 00 00       	call   5cb9 <_setjmp>
    1d5b:	85 c0                	test   eax,eax
    1d5d:	74 71                	je     1dd0 <do_ecall+0x160>
    1d5f:	48 8b 74 24 18       	mov    rsi,QWORD PTR [rsp+0x18]
    1d64:	bb 09 00 00 00       	mov    ebx,0x9
    1d69:	48 8b 46 10          	mov    rax,QWORD PTR [rsi+0x10]
    1d6d:	48 89 46 08          	mov    QWORD PTR [rsi+0x8],rax
    1d71:	bf 09 00 00 00       	mov    edi,0x9
    1d76:	e8 d5 fc ff ff       	call   1a50 <_Z24_pthread_tls_store_state9_status_t>
    1d7b:	e8 10 fd ff ff       	call   1a90 <_Z24_pthread_tls_destructorsv>
    1d80:	48 8b 7c 24 08       	mov    rdi,QWORD PTR [rsp+0x8]
    1d85:	e8 f6 fc ff ff       	call   1a80 <_Z20_pthread_wakeup_joinPv>
    1d8a:	e9 12 ff ff ff       	jmp    1ca1 <do_ecall+0x31>
    1d8f:	90                   	nop
    1d90:	e8 cb fc ff ff       	call   1a60 <_Z22_pthread_tls_get_statev>
    1d95:	83 f8 09             	cmp    eax,0x9
    1d98:	0f 84 76 ff ff ff    	je     1d14 <do_ecall+0xa4>
    1d9e:	83 7c 24 14 fa       	cmp    DWORD PTR [rsp+0x14],0xfffffffa
    1da3:	0f 85 2b ff ff ff    	jne    1cd4 <do_ecall+0x64>
    1da9:	e9 66 ff ff ff       	jmp    1d14 <do_ecall+0xa4>
    1dae:	66 90                	xchg   ax,ax
    1db0:	0f c7 f0             	rdrand eax
    1db3:	48 8b 74 24 08       	mov    rsi,QWORD PTR [rsp+0x8]
    1db8:	8b 7c 24 14          	mov    edi,DWORD PTR [rsp+0x14]
    1dbc:	e8 6f fc ff ff       	call   1a30 <_Z30_random_stack_noinline_wrapperI9_status_tJjPvEJRiRS1_EET_PFS4_DpT0_EDpOT1_.isra.0.constprop.3>
    1dc1:	89 c3                	mov    ebx,eax
    1dc3:	e9 d9 fe ff ff       	jmp    1ca1 <do_ecall+0x31>
    1dc8:	0f 1f 84 00 00 00 00 	nop    DWORD PTR [rax+rax*1+0x0]
    1dcf:	00 
    1dd0:	48 8d 7c 24 20       	lea    rdi,[rsp+0x20]
    1dd5:	e8 96 fc ff ff       	call   1a70 <_Z26_pthread_tls_store_contextPv>
    1dda:	0f c7 f0             	rdrand eax
    1ddd:	8b 6c 24 14          	mov    ebp,DWORD PTR [rsp+0x14]
    1de1:	48 8b 74 24 08       	mov    rsi,QWORD PTR [rsp+0x8]
    1de6:	89 ef                	mov    edi,ebp
    1de8:	e8 43 fc ff ff       	call   1a30 <_Z30_random_stack_noinline_wrapperI9_status_tJjPvEJRiRS1_EET_PFS4_DpT0_EDpOT1_.isra.0.constprop.3>
    1ded:	83 fd fa             	cmp    ebp,0xfffffffa
    1df0:	89 c3                	mov    ebx,eax
    1df2:	0f 84 79 ff ff ff    	je     1d71 <do_ecall+0x101>
    1df8:	83 fb 09             	cmp    ebx,0x9
    1dfb:	0f 85 7a ff ff ff    	jne    1d7b <do_ecall+0x10b>
    1e01:	e9 6b ff ff ff       	jmp    1d71 <do_ecall+0x101>
    1e06:	e8 95 16 00 00       	call   34a0 <__stack_chk_fail>
    1e0b:	0f 1f 44 00 00       	nop    DWORD PTR [rax+rax*1+0x0]

0000000000001e10 <do_ecall_add_thread>:
    1e10:	55                   	push   rbp
    1e11:	53                   	push   rbx
    1e12:	48 89 fb             	mov    rbx,rdi
    1e15:	48 83 ec 08          	sub    rsp,0x8
    1e19:	e8 b2 07 00 00       	call   25d0 <is_utility_thread>
    1e1e:	48 85 db             	test   rbx,rbx
    1e21:	74 04                	je     1e27 <do_ecall_add_thread+0x17>
    1e23:	3c 01                	cmp    al,0x1
    1e25:	74 11                	je     1e38 <do_ecall_add_thread+0x28>
    1e27:	bb 01 00 00 00       	mov    ebx,0x1
    1e2c:	48 83 c4 08          	add    rsp,0x8
    1e30:	89 d8                	mov    eax,ebx
    1e32:	5b                   	pop    rbx
    1e33:	5d                   	pop    rbp
    1e34:	c3                   	ret    
    1e35:	0f 1f 00             	nop    DWORD PTR [rax]
    1e38:	be 08 00 00 00       	mov    esi,0x8
    1e3d:	48 89 df             	mov    rdi,rbx
    1e40:	e8 bb e9 ff ff       	call   800 <sgx_is_outside_enclave>
    1e45:	85 c0                	test   eax,eax
    1e47:	74 de                	je     1e27 <do_ecall_add_thread+0x17>
    1e49:	48 8b 2b             	mov    rbp,QWORD PTR [rbx]
    1e4c:	48 85 ed             	test   rbp,rbp
    1e4f:	74 d6                	je     1e27 <do_ecall_add_thread+0x17>
    1e51:	48 89 ef             	mov    rdi,rbp
    1e54:	0f ae e8             	lfence 
    1e57:	e8 84 f8 ff ff       	call   16e0 <_ZL11do_save_tcsPv>
    1e5c:	85 c0                	test   eax,eax
    1e5e:	89 c3                	mov    ebx,eax
    1e60:	75 ca                	jne    1e2c <do_ecall_add_thread+0x1c>
    1e62:	48 89 ef             	mov    rdi,rbp
    1e65:	e8 36 f6 ff ff       	call   14a0 <do_add_thread>
    1e6a:	85 c0                	test   eax,eax
    1e6c:	89 c3                	mov    ebx,eax
    1e6e:	74 bc                	je     1e2c <do_ecall_add_thread+0x1c>
    1e70:	e8 5b 07 00 00       	call   25d0 <is_utility_thread>
    1e75:	84 c0                	test   al,al
    1e77:	74 b3                	je     1e2c <do_ecall_add_thread+0x1c>
    1e79:	48 8b 15 50 72 20 00 	mov    rdx,QWORD PTR [rip+0x207250]        # 2090d0 <_ZL10g_tcs_node>
    1e80:	48 85 d2             	test   rdx,rdx
    1e83:	74 a7                	je     1e2c <do_ecall_add_thread+0x1c>
    1e85:	48 8b 0d 3c 72 20 00 	mov    rcx,QWORD PTR [rip+0x20723c]        # 2090c8 <_ZL12g_tcs_cookie>
    1e8c:	48 8b 32             	mov    rsi,QWORD PTR [rdx]
    1e8f:	48 8b 42 08          	mov    rax,QWORD PTR [rdx+0x8]
    1e93:	48 31 ce             	xor    rsi,rcx
    1e96:	48 39 f5             	cmp    rbp,rsi
    1e99:	74 42                	je     1edd <do_ecall_add_thread+0xcd>
    1e9b:	48 85 c0             	test   rax,rax
    1e9e:	74 8c                	je     1e2c <do_ecall_add_thread+0x1c>
    1ea0:	48 8b 30             	mov    rsi,QWORD PTR [rax]
    1ea3:	48 31 ce             	xor    rsi,rcx
    1ea6:	48 39 f5             	cmp    rbp,rsi
    1ea9:	75 08                	jne    1eb3 <do_ecall_add_thread+0xa3>
    1eab:	eb 44                	jmp    1ef1 <do_ecall_add_thread+0xe1>
    1ead:	0f 1f 00             	nop    DWORD PTR [rax]
    1eb0:	48 89 f8             	mov    rax,rdi
    1eb3:	48 8b 78 08          	mov    rdi,QWORD PTR [rax+0x8]
    1eb7:	48 85 ff             	test   rdi,rdi
    1eba:	0f 84 6c ff ff ff    	je     1e2c <do_ecall_add_thread+0x1c>
    1ec0:	48 8b 17             	mov    rdx,QWORD PTR [rdi]
    1ec3:	48 31 ca             	xor    rdx,rcx
    1ec6:	48 39 d5             	cmp    rbp,rdx
    1ec9:	75 e5                	jne    1eb0 <do_ecall_add_thread+0xa0>
    1ecb:	48 8b 57 08          	mov    rdx,QWORD PTR [rdi+0x8]
    1ecf:	48 89 50 08          	mov    QWORD PTR [rax+0x8],rdx
    1ed3:	e8 e8 30 00 00       	call   4fc0 <dlfree>
    1ed8:	e9 4f ff ff ff       	jmp    1e2c <do_ecall_add_thread+0x1c>
    1edd:	48 89 d7             	mov    rdi,rdx
    1ee0:	48 89 05 e9 71 20 00 	mov    QWORD PTR [rip+0x2071e9],rax        # 2090d0 <_ZL10g_tcs_node>
    1ee7:	e8 d4 30 00 00       	call   4fc0 <dlfree>
    1eec:	e9 3b ff ff ff       	jmp    1e2c <do_ecall_add_thread+0x1c>
    1ef1:	48 89 c7             	mov    rdi,rax
    1ef4:	48 89 d0             	mov    rax,rdx
    1ef7:	eb d2                	jmp    1ecb <do_ecall_add_thread+0xbb>
    1ef9:	0f 1f 80 00 00 00 00 	nop    DWORD PTR [rax+0x0]

0000000000001f00 <do_uninit_enclave>:
    1f00:	48 8d 05 f1 6e 20 00 	lea    rax,[rip+0x206ef1]        # 208df8 <EDMM_supported>
    1f07:	41 54                	push   r12
    1f09:	55                   	push   rbp
    1f0a:	53                   	push   rbx
    1f0b:	8b 00                	mov    eax,DWORD PTR [rax]
    1f0d:	85 c0                	test   eax,eax
    1f0f:	0f 84 b0 00 00 00    	je     1fc5 <do_uninit_enclave+0xc5>
    1f15:	48 89 fd             	mov    rbp,rdi
    1f18:	e8 b3 06 00 00       	call   25d0 <is_utility_thread>
    1f1d:	84 c0                	test   al,al
    1f1f:	0f 84 93 00 00 00    	je     1fb8 <do_uninit_enclave+0xb8>
    1f25:	f0 83 0d 93 71 20 00 	lock or DWORD PTR [rip+0x207193],0x1        # 2090c0 <g_uninit_flag>
    1f2c:	01 
    1f2d:	48 8b 1d 9c 71 20 00 	mov    rbx,QWORD PTR [rip+0x20719c]        # 2090d0 <_ZL10g_tcs_node>
    1f34:	48 c7 05 91 71 20 00 	mov    QWORD PTR [rip+0x207191],0x0        # 2090d0 <_ZL10g_tcs_node>
    1f3b:	00 00 00 00 
    1f3f:	48 85 db             	test   rbx,rbx
    1f42:	74 3c                	je     1f80 <do_uninit_enclave+0x80>
    1f44:	0f 1f 40 00          	nop    DWORD PTR [rax+0x0]
    1f48:	48 8b 33             	mov    rsi,QWORD PTR [rbx]
    1f4b:	48 33 35 76 71 20 00 	xor    rsi,QWORD PTR [rip+0x207176]        # 2090c8 <_ZL12g_tcs_cookie>
    1f52:	48 39 f5             	cmp    rbp,rsi
    1f55:	74 15                	je     1f6c <do_uninit_enclave+0x6c>
    1f57:	48 8d 96 00 10 00 00 	lea    rdx,[rsi+0x1000]
    1f5e:	bf 10 04 00 00       	mov    edi,0x410
    1f63:	e8 58 f1 ff ff       	call   10c0 <sgx_accept_forward>
    1f68:	85 c0                	test   eax,eax
    1f6a:	75 59                	jne    1fc5 <do_uninit_enclave+0xc5>
    1f6c:	4c 8b 63 08          	mov    r12,QWORD PTR [rbx+0x8]
    1f70:	48 89 df             	mov    rdi,rbx
    1f73:	e8 48 30 00 00       	call   4fc0 <dlfree>
    1f78:	4c 89 e3             	mov    rbx,r12
    1f7b:	48 85 db             	test   rbx,rbx
    1f7e:	75 c8                	jne    1f48 <do_uninit_enclave+0x48>
    1f80:	48 8d 3d 3d 71 20 00 	lea    rdi,[rip+0x20713d]        # 2090c4 <_ZL10g_ife_lock>
    1f87:	e8 c4 3c 00 00       	call   5c50 <sgx_spin_lock>
    1f8c:	0f b6 05 6d 70 20 00 	movzx  eax,BYTE PTR [rip+0x20706d]        # 209000 <_ZL16g_is_first_ecall>
    1f93:	84 c0                	test   al,al
    1f95:	74 49                	je     1fe0 <do_uninit_enclave+0xe0>
    1f97:	48 8d 3d 26 71 20 00 	lea    rdi,[rip+0x207126]        # 2090c4 <_ZL10g_ife_lock>
    1f9e:	e8 0d 3d 00 00       	call   5cb0 <sgx_spin_unlock>
    1fa3:	bf 03 00 00 00       	mov    edi,0x3
    1fa8:	e8 a7 48 00 00       	call   6854 <set_enclave_state>
    1fad:	5b                   	pop    rbx
    1fae:	31 c0                	xor    eax,eax
    1fb0:	5d                   	pop    rbp
    1fb1:	41 5c                	pop    r12
    1fb3:	c3                   	ret    
    1fb4:	0f 1f 40 00          	nop    DWORD PTR [rax+0x0]
    1fb8:	e8 03 f0 ff ff       	call   fc0 <is_dynamic_thread_exist>
    1fbd:	85 c0                	test   eax,eax
    1fbf:	0f 84 60 ff ff ff    	je     1f25 <do_uninit_enclave+0x25>
    1fc5:	bf 03 00 00 00       	mov    edi,0x3
    1fca:	e8 85 48 00 00       	call   6854 <set_enclave_state>
    1fcf:	5b                   	pop    rbx
    1fd0:	b8 01 00 00 00       	mov    eax,0x1
    1fd5:	5d                   	pop    rbp
    1fd6:	41 5c                	pop    r12
    1fd8:	c3                   	ret    
    1fd9:	0f 1f 80 00 00 00 00 	nop    DWORD PTR [rax+0x0]
    1fe0:	e8 db 13 00 00       	call   33c0 <uninit_global_object>
    1fe5:	eb b0                	jmp    1f97 <do_uninit_enclave+0x97>
    1fe7:	66 0f 1f 84 00 00 00 	nop    WORD PTR [rax+rax*1+0x0]
    1fee:	00 00 

0000000000001ff0 <trts_mprotect>:
    1ff0:	4c 8d 54 24 08       	lea    r10,[rsp+0x8]
    1ff5:	48 83 e4 c0          	and    rsp,0xffffffffffffffc0
    1ff9:	41 ff 72 f8          	push   QWORD PTR [r10-0x8]
    1ffd:	55                   	push   rbp
    1ffe:	48 89 e5             	mov    rbp,rsp
    2001:	41 56                	push   r14
    2003:	41 55                	push   r13
    2005:	41 54                	push   r12
    2007:	41 52                	push   r10
    2009:	53                   	push   rbx
    200a:	48 81 ec 88 00 00 00 	sub    rsp,0x88
    2011:	64 48 8b 04 25 28 00 	mov    rax,QWORD PTR fs:0x28
    2018:	00 00 
    201a:	48 89 45 c8          	mov    QWORD PTR [rbp-0x38],rax
    201e:	31 c0                	xor    eax,eax
    2020:	f7 c7 ff 0f 00 00    	test   edi,0xfff
    2026:	b8 02 00 00 00       	mov    eax,0x2
    202b:	0f 85 8f 00 00 00    	jne    20c0 <trts_mprotect+0xd0>
    2031:	48 85 f6             	test   rsi,rsi
    2034:	49 89 f4             	mov    r12,rsi
    2037:	0f 84 83 00 00 00    	je     20c0 <trts_mprotect+0xd0>
    203d:	f7 c6 ff 0f 00 00    	test   esi,0xfff
    2043:	75 7b                	jne    20c0 <trts_mprotect+0xd0>
    2045:	48 8d 05 a8 6d 20 00 	lea    rax,[rip+0x206da8]        # 208df4 <g_sdk_version>
    204c:	48 89 fb             	mov    rbx,rdi
    204f:	49 89 d5             	mov    r13,rdx
    2052:	83 38 01             	cmp    DWORD PTR [rax],0x1
    2055:	0f 84 8d 00 00 00    	je     20e8 <trts_mprotect+0xf8>
    205b:	4c 8d b5 50 ff ff ff 	lea    r14,[rbp-0xb0]
    2062:	4c 89 e8             	mov    rax,r13
    2065:	31 f6                	xor    esi,esi
    2067:	48 0d 20 02 00 00    	or     rax,0x220
    206d:	ba 38 00 00 00       	mov    edx,0x38
    2072:	49 01 dc             	add    r12,rbx
    2075:	49 8d 7e 08          	lea    rdi,[r14+0x8]
    2079:	48 89 85 50 ff ff ff 	mov    QWORD PTR [rbp-0xb0],rax
    2080:	41 83 e5 06          	and    r13d,0x6
    2084:	e8 e4 39 00 00       	call   5a6d <memset>
    2089:	4c 39 e3             	cmp    rbx,r12
    208c:	73 2e                	jae    20bc <trts_mprotect+0xcc>
    208e:	66 90                	xchg   ax,ax
    2090:	48 89 de             	mov    rsi,rbx
    2093:	4c 89 f7             	mov    rdi,r14
    2096:	e8 da 4a 00 00       	call   6b75 <do_emodpe>
    209b:	49 83 fd 06          	cmp    r13,0x6
    209f:	74 0f                	je     20b0 <trts_mprotect+0xc0>
    20a1:	48 89 de             	mov    rsi,rbx
    20a4:	4c 89 f7             	mov    rdi,r14
    20a7:	e8 af 4a 00 00       	call   6b5b <do_eaccept>
    20ac:	85 c0                	test   eax,eax
    20ae:	75 10                	jne    20c0 <trts_mprotect+0xd0>
    20b0:	48 81 c3 00 10 00 00 	add    rbx,0x1000
    20b7:	4c 39 e3             	cmp    rbx,r12
    20ba:	72 d4                	jb     2090 <trts_mprotect+0xa0>
    20bc:	31 c0                	xor    eax,eax
    20be:	66 90                	xchg   ax,ax
    20c0:	48 8b 4d c8          	mov    rcx,QWORD PTR [rbp-0x38]
    20c4:	64 48 33 0c 25 28 00 	xor    rcx,QWORD PTR fs:0x28
    20cb:	00 00 
    20cd:	75 28                	jne    20f7 <trts_mprotect+0x107>
    20cf:	48 81 c4 88 00 00 00 	add    rsp,0x88
    20d6:	5b                   	pop    rbx
    20d7:	41 5a                	pop    r10
    20d9:	41 5c                	pop    r12
    20db:	41 5d                	pop    r13
    20dd:	41 5e                	pop    r14
    20df:	5d                   	pop    rbp
    20e0:	49 8d 62 f8          	lea    rsp,[r10-0x8]
    20e4:	c3                   	ret    
    20e5:	0f 1f 00             	nop    DWORD PTR [rax]
    20e8:	e8 13 00 00 00       	call   2100 <change_permissions_ocall>
    20ed:	85 c0                	test   eax,eax
    20ef:	0f 84 66 ff ff ff    	je     205b <trts_mprotect+0x6b>
    20f5:	eb c9                	jmp    20c0 <trts_mprotect+0xd0>
    20f7:	e8 a4 13 00 00       	call   34a0 <__stack_chk_fail>
    20fc:	0f 1f 40 00          	nop    DWORD PTR [rax+0x0]

0000000000002100 <change_permissions_ocall>:
    2100:	41 54                	push   r12
    2102:	55                   	push   rbp
    2103:	49 89 fc             	mov    r12,rdi
    2106:	53                   	push   rbx
    2107:	bf 18 00 00 00       	mov    edi,0x18
    210c:	48 89 f5             	mov    rbp,rsi
    210f:	48 89 d3             	mov    rbx,rdx
    2112:	e8 39 e7 ff ff       	call   850 <sgx_ocalloc>
    2117:	48 85 c0             	test   rax,rax
    211a:	74 2c                	je     2148 <change_permissions_ocall+0x48>
    211c:	4c 89 20             	mov    QWORD PTR [rax],r12
    211f:	48 89 68 08          	mov    QWORD PTR [rax+0x8],rbp
    2123:	48 89 c6             	mov    rsi,rax
    2126:	48 89 58 10          	mov    QWORD PTR [rax+0x10],rbx
    212a:	bf fc ff ff ff       	mov    edi,0xfffffffc
    212f:	e8 2c 00 00 00       	call   2160 <sgx_ocall>
    2134:	89 c3                	mov    ebx,eax
    2136:	e8 05 e8 ff ff       	call   940 <sgx_ocfree>
    213b:	89 d8                	mov    eax,ebx
    213d:	5b                   	pop    rbx
    213e:	5d                   	pop    rbp
    213f:	41 5c                	pop    r12
    2141:	c3                   	ret    
    2142:	66 0f 1f 44 00 00    	nop    WORD PTR [rax+rax*1+0x0]
    2148:	bb 01 00 00 00       	mov    ebx,0x1
    214d:	e8 ee e7 ff ff       	call   940 <sgx_ocfree>
    2152:	89 d8                	mov    eax,ebx
    2154:	5b                   	pop    rbx
    2155:	5d                   	pop    rbp
    2156:	41 5c                	pop    r12
    2158:	c3                   	ret    
    2159:	0f 1f 80 00 00 00 00 	nop    DWORD PTR [rax+0x0]

0000000000002160 <sgx_ocall>:
    2160:	8d 47 04             	lea    eax,[rdi+0x4]
    2163:	83 f8 02             	cmp    eax,0x2
    2166:	76 12                	jbe    217a <sgx_ocall+0x1a>
    2168:	85 ff                	test   edi,edi
    216a:	74 0e                	je     217a <sgx_ocall+0x1a>
    216c:	48 8d 15 ad 4a 00 00 	lea    rdx,[rip+0x4aad]        # 6c20 <g_dyn_entry_table>
    2173:	89 f8                	mov    eax,edi
    2175:	48 3b 02             	cmp    rax,QWORD PTR [rdx]
    2178:	73 06                	jae    2180 <sgx_ocall+0x20>
    217a:	e9 2f 49 00 00       	jmp    6aae <__morestack>
    217f:	90                   	nop
    2180:	b8 01 10 00 00       	mov    eax,0x1001
    2185:	c3                   	ret    
    2186:	66 2e 0f 1f 84 00 00 	nop    WORD PTR cs:[rax+rax*1+0x0]
    218d:	00 00 00 

0000000000002190 <update_ocall_lastsp>:
    2190:	53                   	push   rbx
    2191:	48 89 fb             	mov    rbx,rdi
    2194:	e8 e1 46 00 00       	call   687a <get_thread_data>
    2199:	48 8b 50 08          	mov    rdx,QWORD PTR [rax+0x8]
    219d:	48 39 50 10          	cmp    QWORD PTR [rax+0x10],rdx
    21a1:	48 89 53 30          	mov    QWORD PTR [rbx+0x30],rdx
    21a5:	74 21                	je     21c8 <update_ocall_lastsp+0x38>
    21a7:	48 8b b2 90 00 00 00 	mov    rsi,QWORD PTR [rdx+0x90]
    21ae:	48 8d 4e 01          	lea    rcx,[rsi+0x1]
    21b2:	48 89 8b 90 00 00 00 	mov    QWORD PTR [rbx+0x90],rcx
    21b9:	48 89 58 08          	mov    QWORD PTR [rax+0x8],rbx
    21bd:	48 89 d0             	mov    rax,rdx
    21c0:	5b                   	pop    rbx
    21c1:	c3                   	ret    
    21c2:	66 0f 1f 44 00 00    	nop    WORD PTR [rax+rax*1+0x0]
    21c8:	48 c7 83 90 00 00 00 	mov    QWORD PTR [rbx+0x90],0x1
    21cf:	01 00 00 00 
    21d3:	48 89 58 08          	mov    QWORD PTR [rax+0x8],rbx
    21d7:	48 89 d0             	mov    rax,rdx
    21da:	5b                   	pop    rbx
    21db:	c3                   	ret    
    21dc:	0f 1f 40 00          	nop    DWORD PTR [rax+0x0]

00000000000021e0 <do_oret>:
    21e0:	53                   	push   rbx
    21e1:	48 89 fb             	mov    rbx,rdi
    21e4:	48 83 ec 10          	sub    rsp,0x10
    21e8:	64 48 8b 04 25 28 00 	mov    rax,QWORD PTR fs:0x28
    21ef:	00 00 
    21f1:	48 89 44 24 08       	mov    QWORD PTR [rsp+0x8],rax
    21f6:	31 c0                	xor    eax,eax
    21f8:	e8 7d 46 00 00       	call   687a <get_thread_data>
    21fd:	48 8b 78 08          	mov    rdi,QWORD PTR [rax+0x8]
    2201:	48 85 ff             	test   rdi,rdi
    2204:	48 89 3c 24          	mov    QWORD PTR [rsp],rdi
    2208:	74 46                	je     2250 <do_oret+0x70>
    220a:	48 89 e2             	mov    rdx,rsp
    220d:	48 39 fa             	cmp    rdx,rdi
    2210:	73 3e                	jae    2250 <do_oret+0x70>
    2212:	48 8b 50 10          	mov    rdx,QWORD PTR [rax+0x10]
    2216:	48 8d 8a 10 ff ff ff 	lea    rcx,[rdx-0xf0]
    221d:	48 39 f9             	cmp    rcx,rdi
    2220:	72 2e                	jb     2250 <do_oret+0x70>
    2222:	48 81 7f 20 44 49 43 	cmp    QWORD PTR [rdi+0x20],0x4f434944
    2229:	4f 
    222a:	75 24                	jne    2250 <do_oret+0x70>
    222c:	48 8b 4f 30          	mov    rcx,QWORD PTR [rdi+0x30]
    2230:	48 39 ca             	cmp    rdx,rcx
    2233:	72 1b                	jb     2250 <do_oret+0x70>
    2235:	48 39 f9             	cmp    rcx,rdi
    2238:	76 16                	jbe    2250 <do_oret+0x70>
    223a:	48 89 48 08          	mov    QWORD PTR [rax+0x8],rcx
    223e:	48 89 de             	mov    rsi,rbx
    2241:	e8 77 48 00 00       	call   6abd <asm_oret>
    2246:	66 2e 0f 1f 84 00 00 	nop    WORD PTR cs:[rax+rax*1+0x0]
    224d:	00 00 00 
    2250:	48 8b 74 24 08       	mov    rsi,QWORD PTR [rsp+0x8]
    2255:	64 48 33 34 25 28 00 	xor    rsi,QWORD PTR fs:0x28
    225c:	00 00 
    225e:	b8 01 00 00 00       	mov    eax,0x1
    2263:	75 06                	jne    226b <do_oret+0x8b>
    2265:	48 83 c4 10          	add    rsp,0x10
    2269:	5b                   	pop    rbx
    226a:	c3                   	ret    
    226b:	e8 30 12 00 00       	call   34a0 <__stack_chk_fail>

0000000000002270 <trim_range_ocall>:
    2270:	55                   	push   rbp
    2271:	53                   	push   rbx
    2272:	48 89 fd             	mov    rbp,rdi
    2275:	bf 10 00 00 00       	mov    edi,0x10
    227a:	48 89 f3             	mov    rbx,rsi
    227d:	48 83 ec 08          	sub    rsp,0x8
    2281:	e8 ca e5 ff ff       	call   850 <sgx_ocalloc>
    2286:	48 85 c0             	test   rax,rax
    2289:	74 25                	je     22b0 <trim_range_ocall+0x40>
    228b:	48 89 28             	mov    QWORD PTR [rax],rbp
    228e:	48 89 58 08          	mov    QWORD PTR [rax+0x8],rbx
    2292:	48 89 c6             	mov    rsi,rax
    2295:	bf fe ff ff ff       	mov    edi,0xfffffffe
    229a:	e8 c1 fe ff ff       	call   2160 <sgx_ocall>
    229f:	89 c3                	mov    ebx,eax
    22a1:	e8 9a e6 ff ff       	call   940 <sgx_ocfree>
    22a6:	48 83 c4 08          	add    rsp,0x8
    22aa:	89 d8                	mov    eax,ebx
    22ac:	5b                   	pop    rbx
    22ad:	5d                   	pop    rbp
    22ae:	c3                   	ret    
    22af:	90                   	nop
    22b0:	e8 8b e6 ff ff       	call   940 <sgx_ocfree>
    22b5:	bb 01 00 00 00       	mov    ebx,0x1
    22ba:	48 83 c4 08          	add    rsp,0x8
    22be:	89 d8                	mov    eax,ebx
    22c0:	5b                   	pop    rbx
    22c1:	5d                   	pop    rbp
    22c2:	c3                   	ret    
    22c3:	66 2e 0f 1f 84 00 00 	nop    WORD PTR cs:[rax+rax*1+0x0]
    22ca:	00 00 00 
    22cd:	0f 1f 00             	nop    DWORD PTR [rax]

00000000000022d0 <trim_range_commit_ocall>:
    22d0:	53                   	push   rbx
    22d1:	48 89 fb             	mov    rbx,rdi
    22d4:	bf 08 00 00 00       	mov    edi,0x8
    22d9:	e8 72 e5 ff ff       	call   850 <sgx_ocalloc>
    22de:	48 85 c0             	test   rax,rax
    22e1:	74 1d                	je     2300 <trim_range_commit_ocall+0x30>
    22e3:	48 89 18             	mov    QWORD PTR [rax],rbx
    22e6:	48 89 c6             	mov    rsi,rax
    22e9:	bf fd ff ff ff       	mov    edi,0xfffffffd
    22ee:	e8 6d fe ff ff       	call   2160 <sgx_ocall>
    22f3:	89 c3                	mov    ebx,eax
    22f5:	e8 46 e6 ff ff       	call   940 <sgx_ocfree>
    22fa:	89 d8                	mov    eax,ebx
    22fc:	5b                   	pop    rbx
    22fd:	c3                   	ret    
    22fe:	66 90                	xchg   ax,ax
    2300:	bb 01 00 00 00       	mov    ebx,0x1
    2305:	e8 36 e6 ff ff       	call   940 <sgx_ocfree>
    230a:	89 d8                	mov    eax,ebx
    230c:	5b                   	pop    rbx
    230d:	c3                   	ret    
    230e:	66 90                	xchg   ax,ax

0000000000002310 <get_heap_base>:
    2310:	48 8d 05 e9 49 00 00 	lea    rax,[rip+0x49e9]        # 6d00 <g_global_data>
    2317:	48 8b 40 10          	mov    rax,QWORD PTR [rax+0x10]
    231b:	48 03 05 b6 6c 20 00 	add    rax,QWORD PTR [rip+0x206cb6]        # 208fd8 <_GLOBAL_OFFSET_TABLE_+0x18>
    2322:	c3                   	ret    
    2323:	66 2e 0f 1f 84 00 00 	nop    WORD PTR cs:[rax+rax*1+0x0]
    232a:	00 00 00 
    232d:	0f 1f 00             	nop    DWORD PTR [rax]

0000000000002330 <get_heap_size>:
    2330:	48 8d 15 c1 6a 20 00 	lea    rdx,[rip+0x206ac1]        # 208df8 <EDMM_supported>
    2337:	48 8d 35 c2 49 00 00 	lea    rsi,[rip+0x49c2]        # 6d00 <g_global_data>
    233e:	8b 12                	mov    edx,DWORD PTR [rdx]
    2340:	48 8b 46 18          	mov    rax,QWORD PTR [rsi+0x18]
    2344:	85 d2                	test   edx,edx
    2346:	74 40                	je     2388 <get_heap_size+0x58>
    2348:	8b 96 30 01 00 00    	mov    edx,DWORD PTR [rsi+0x130]
    234e:	85 d2                	test   edx,edx
    2350:	74 36                	je     2388 <get_heap_size+0x58>
    2352:	31 c9                	xor    ecx,ecx
    2354:	0f 1f 40 00          	nop    DWORD PTR [rax+0x0]
    2358:	89 ca                	mov    edx,ecx
    235a:	48 c1 e2 05          	shl    rdx,0x5
    235e:	48 01 f2             	add    rdx,rsi
    2361:	0f b7 ba 38 01 00 00 	movzx  edi,WORD PTR [rdx+0x138]
    2368:	66 83 ff 03          	cmp    di,0x3
    236c:	75 0d                	jne    237b <get_heap_size+0x4b>
    236e:	8b 92 3c 01 00 00    	mov    edx,DWORD PTR [rdx+0x13c]
    2374:	48 c1 e2 0c          	shl    rdx,0xc
    2378:	48 01 d0             	add    rax,rdx
    237b:	8b 96 30 01 00 00    	mov    edx,DWORD PTR [rsi+0x130]
    2381:	83 c1 01             	add    ecx,0x1
    2384:	39 ca                	cmp    edx,ecx
    2386:	77 d0                	ja     2358 <get_heap_size+0x28>
    2388:	f3 c3                	repz ret 
    238a:	66 0f 1f 44 00 00    	nop    WORD PTR [rax+rax*1+0x0]

0000000000002390 <get_heap_min_size>:
    2390:	48 8d 0d 69 49 00 00 	lea    rcx,[rip+0x4969]        # 6d00 <g_global_data>
    2397:	8b 81 30 01 00 00    	mov    eax,DWORD PTR [rcx+0x130]
    239d:	85 c0                	test   eax,eax
    239f:	74 3d                	je     23de <get_heap_min_size+0x4e>
    23a1:	0f b7 81 38 01 00 00 	movzx  eax,WORD PTR [rcx+0x138]
    23a8:	66 83 f8 01          	cmp    ax,0x1
    23ac:	74 3a                	je     23e8 <get_heap_min_size+0x58>
    23ae:	31 c0                	xor    eax,eax
    23b0:	eb 1f                	jmp    23d1 <get_heap_min_size+0x41>
    23b2:	66 0f 1f 44 00 00    	nop    WORD PTR [rax+rax*1+0x0]
    23b8:	89 c6                	mov    esi,eax
    23ba:	48 89 f2             	mov    rdx,rsi
    23bd:	48 c1 e2 05          	shl    rdx,0x5
    23c1:	48 01 ca             	add    rdx,rcx
    23c4:	0f b7 92 38 01 00 00 	movzx  edx,WORD PTR [rdx+0x138]
    23cb:	66 83 fa 01          	cmp    dx,0x1
    23cf:	74 19                	je     23ea <get_heap_min_size+0x5a>
    23d1:	8b 91 30 01 00 00    	mov    edx,DWORD PTR [rcx+0x130]
    23d7:	83 c0 01             	add    eax,0x1
    23da:	39 c2                	cmp    edx,eax
    23dc:	77 da                	ja     23b8 <get_heap_min_size+0x28>
    23de:	31 c0                	xor    eax,eax
    23e0:	c3                   	ret    
    23e1:	0f 1f 80 00 00 00 00 	nop    DWORD PTR [rax+0x0]
    23e8:	31 f6                	xor    esi,esi
    23ea:	48 c1 e6 05          	shl    rsi,0x5
    23ee:	48 01 f1             	add    rcx,rsi
    23f1:	8b 81 3c 01 00 00    	mov    eax,DWORD PTR [rcx+0x13c]
    23f7:	48 c1 e0 0c          	shl    rax,0xc
    23fb:	c3                   	ret    
    23fc:	0f 1f 40 00          	nop    DWORD PTR [rax+0x0]

0000000000002400 <get_rsrv_base>:
    2400:	48 8d 05 f9 48 00 00 	lea    rax,[rip+0x48f9]        # 6d00 <g_global_data>
    2407:	48 8b 40 20          	mov    rax,QWORD PTR [rax+0x20]
    240b:	48 03 05 c6 6b 20 00 	add    rax,QWORD PTR [rip+0x206bc6]        # 208fd8 <_GLOBAL_OFFSET_TABLE_+0x18>
    2412:	c3                   	ret    
    2413:	66 2e 0f 1f 84 00 00 	nop    WORD PTR cs:[rax+rax*1+0x0]
    241a:	00 00 00 
    241d:	0f 1f 00             	nop    DWORD PTR [rax]

0000000000002420 <get_rsrv_size>:
    2420:	48 8d 15 d1 69 20 00 	lea    rdx,[rip+0x2069d1]        # 208df8 <EDMM_supported>
    2427:	48 8d 35 d2 48 00 00 	lea    rsi,[rip+0x48d2]        # 6d00 <g_global_data>
    242e:	8b 12                	mov    edx,DWORD PTR [rdx]
    2430:	48 8b 46 28          	mov    rax,QWORD PTR [rsi+0x28]
    2434:	85 d2                	test   edx,edx
    2436:	74 40                	je     2478 <get_rsrv_size+0x58>
    2438:	8b 96 30 01 00 00    	mov    edx,DWORD PTR [rsi+0x130]
    243e:	85 d2                	test   edx,edx
    2440:	74 36                	je     2478 <get_rsrv_size+0x58>
    2442:	31 c9                	xor    ecx,ecx
    2444:	0f 1f 40 00          	nop    DWORD PTR [rax+0x0]
    2448:	89 ca                	mov    edx,ecx
    244a:	48 c1 e2 05          	shl    rdx,0x5
    244e:	48 01 f2             	add    rdx,rsi
    2451:	0f b7 ba 38 01 00 00 	movzx  edi,WORD PTR [rdx+0x138]
    2458:	66 83 ff 16          	cmp    di,0x16
    245c:	75 0d                	jne    246b <get_rsrv_size+0x4b>
    245e:	8b 92 3c 01 00 00    	mov    edx,DWORD PTR [rdx+0x13c]
    2464:	48 c1 e2 0c          	shl    rdx,0xc
    2468:	48 01 d0             	add    rax,rdx
    246b:	8b 96 30 01 00 00    	mov    edx,DWORD PTR [rsi+0x130]
    2471:	83 c1 01             	add    ecx,0x1
    2474:	39 ca                	cmp    edx,ecx
    2476:	77 d0                	ja     2448 <get_rsrv_size+0x28>
    2478:	f3 c3                	repz ret 
    247a:	66 0f 1f 44 00 00    	nop    WORD PTR [rax+rax*1+0x0]

0000000000002480 <get_rsrv_min_size>:
    2480:	48 8d 0d 79 48 00 00 	lea    rcx,[rip+0x4879]        # 6d00 <g_global_data>
    2487:	8b 81 30 01 00 00    	mov    eax,DWORD PTR [rcx+0x130]
    248d:	85 c0                	test   eax,eax
    248f:	74 3d                	je     24ce <get_rsrv_min_size+0x4e>
    2491:	0f b7 81 38 01 00 00 	movzx  eax,WORD PTR [rcx+0x138]
    2498:	66 83 f8 14          	cmp    ax,0x14
    249c:	74 3a                	je     24d8 <get_rsrv_min_size+0x58>
    249e:	31 c0                	xor    eax,eax
    24a0:	eb 1f                	jmp    24c1 <get_rsrv_min_size+0x41>
    24a2:	66 0f 1f 44 00 00    	nop    WORD PTR [rax+rax*1+0x0]
    24a8:	89 c6                	mov    esi,eax
    24aa:	48 89 f2             	mov    rdx,rsi
    24ad:	48 c1 e2 05          	shl    rdx,0x5
    24b1:	48 01 ca             	add    rdx,rcx
    24b4:	0f b7 92 38 01 00 00 	movzx  edx,WORD PTR [rdx+0x138]
    24bb:	66 83 fa 14          	cmp    dx,0x14
    24bf:	74 19                	je     24da <get_rsrv_min_size+0x5a>
    24c1:	8b 91 30 01 00 00    	mov    edx,DWORD PTR [rcx+0x130]
    24c7:	83 c0 01             	add    eax,0x1
    24ca:	39 c2                	cmp    edx,eax
    24cc:	77 da                	ja     24a8 <get_rsrv_min_size+0x28>
    24ce:	31 c0                	xor    eax,eax
    24d0:	c3                   	ret    
    24d1:	0f 1f 80 00 00 00 00 	nop    DWORD PTR [rax+0x0]
    24d8:	31 f6                	xor    esi,esi
    24da:	48 c1 e6 05          	shl    rsi,0x5
    24de:	48 01 f1             	add    rcx,rsi
    24e1:	8b 81 3c 01 00 00    	mov    eax,DWORD PTR [rcx+0x13c]
    24e7:	48 c1 e0 0c          	shl    rax,0xc
    24eb:	c3                   	ret    
    24ec:	0f 1f 40 00          	nop    DWORD PTR [rax+0x0]

00000000000024f0 <get_errno_addr>:
    24f0:	48 83 ec 08          	sub    rsp,0x8
    24f4:	e8 81 43 00 00       	call   687a <get_thread_data>
    24f9:	48 83 c4 08          	add    rsp,0x8
    24fd:	48 83 c0 40          	add    rax,0x40
    2501:	c3                   	ret    
    2502:	66 2e 0f 1f 84 00 00 	nop    WORD PTR cs:[rax+rax*1+0x0]
    2509:	00 00 00 
    250c:	0f 1f 40 00          	nop    DWORD PTR [rax+0x0]

0000000000002510 <feature_supported>:
    2510:	31 c0                	xor    eax,eax
    2512:	48 85 ff             	test   rdi,rdi
    2515:	74 3b                	je     2552 <feature_supported+0x42>
    2517:	31 d2                	xor    edx,edx
    2519:	eb 0d                	jmp    2528 <feature_supported+0x18>
    251b:	0f 1f 44 00 00       	nop    DWORD PTR [rax+rax*1+0x0]
    2520:	48 85 c0             	test   rax,rax
    2523:	44 89 c2             	mov    edx,r8d
    2526:	78 28                	js     2550 <feature_supported+0x40>
    2528:	44 8d 42 01          	lea    r8d,[rdx+0x1]
    252c:	89 d0                	mov    eax,edx
    252e:	48 8b 04 c7          	mov    rax,QWORD PTR [rdi+rax*8]
    2532:	45 89 c1             	mov    r9d,r8d
    2535:	41 c1 e1 06          	shl    r9d,0x6
    2539:	44 39 ce             	cmp    esi,r9d
    253c:	73 e2                	jae    2520 <feature_supported+0x10>
    253e:	c1 e2 06             	shl    edx,0x6
    2541:	89 f1                	mov    ecx,esi
    2543:	29 d1                	sub    ecx,edx
    2545:	48 d3 e8             	shr    rax,cl
    2548:	83 e0 01             	and    eax,0x1
    254b:	c3                   	ret    
    254c:	0f 1f 40 00          	nop    DWORD PTR [rax+0x0]
    2550:	31 c0                	xor    eax,eax
    2552:	f3 c3                	repz ret 
    2554:	66 2e 0f 1f 84 00 00 	nop    WORD PTR cs:[rax+rax*1+0x0]
    255b:	00 00 00 
    255e:	66 90                	xchg   ax,ax

0000000000002560 <is_stack_addr>:
    2560:	55                   	push   rbp
    2561:	53                   	push   rbx
    2562:	48 89 f5             	mov    rbp,rsi
    2565:	48 89 fb             	mov    rbx,rdi
    2568:	48 83 ec 08          	sub    rsp,0x8
    256c:	e8 09 43 00 00       	call   687a <get_thread_data>
    2571:	31 c9                	xor    ecx,ecx
    2573:	48 01 dd             	add    rbp,rbx
    2576:	0f 92 c1             	setb   cl
    2579:	48 3b 68 10          	cmp    rbp,QWORD PTR [rax+0x10]
    257d:	0f 96 c2             	setbe  dl
    2580:	48 39 58 18          	cmp    QWORD PTR [rax+0x18],rbx
    2584:	0f 96 c0             	setbe  al
    2587:	21 d0                	and    eax,edx
    2589:	48 85 c9             	test   rcx,rcx
    258c:	0f 94 c2             	sete   dl
    258f:	48 83 c4 08          	add    rsp,0x8
    2593:	21 d0                	and    eax,edx
    2595:	5b                   	pop    rbx
    2596:	5d                   	pop    rbp
    2597:	c3                   	ret    
    2598:	0f 1f 84 00 00 00 00 	nop    DWORD PTR [rax+rax*1+0x0]
    259f:	00 

00000000000025a0 <is_valid_sp>:
    25a0:	40 f6 c7 07          	test   dil,0x7
    25a4:	74 0a                	je     25b0 <is_valid_sp+0x10>
    25a6:	31 c0                	xor    eax,eax
    25a8:	c3                   	ret    
    25a9:	0f 1f 80 00 00 00 00 	nop    DWORD PTR [rax+0x0]
    25b0:	53                   	push   rbx
    25b1:	48 89 fb             	mov    rbx,rdi
    25b4:	e8 c1 42 00 00       	call   687a <get_thread_data>
    25b9:	48 3b 58 10          	cmp    rbx,QWORD PTR [rax+0x10]
    25bd:	0f 96 c2             	setbe  dl
    25c0:	48 3b 58 18          	cmp    rbx,QWORD PTR [rax+0x18]
    25c4:	5b                   	pop    rbx
    25c5:	0f 93 c0             	setae  al
    25c8:	21 d0                	and    eax,edx
    25ca:	c3                   	ret    
    25cb:	0f 1f 44 00 00       	nop    DWORD PTR [rax+rax*1+0x0]

00000000000025d0 <is_utility_thread>:
    25d0:	48 83 ec 08          	sub    rsp,0x8
    25d4:	e8 a1 42 00 00       	call   687a <get_thread_data>
    25d9:	31 d2                	xor    edx,edx
    25db:	48 85 c0             	test   rax,rax
    25de:	74 07                	je     25e7 <is_utility_thread+0x17>
    25e0:	48 8b 50 30          	mov    rdx,QWORD PTR [rax+0x30]
    25e4:	83 e2 01             	and    edx,0x1
    25e7:	89 d0                	mov    eax,edx
    25e9:	48 83 c4 08          	add    rsp,0x8
    25ed:	c3                   	ret    
    25ee:	66 90                	xchg   ax,ax

00000000000025f0 <internal_handle_exception>:
    25f0:	41 56                	push   r14
    25f2:	41 55                	push   r13
    25f4:	41 54                	push   r12
    25f6:	55                   	push   rbp
    25f7:	48 89 fd             	mov    rbp,rdi
    25fa:	53                   	push   rbx
    25fb:	e8 7a 42 00 00       	call   687a <get_thread_data>
    2600:	49 89 c4             	mov    r12,rax
    2603:	48 8b 40 60          	mov    rax,QWORD PTR [rax+0x60]
    2607:	48 85 c0             	test   rax,rax
    260a:	79 0e                	jns    261a <internal_handle_exception+0x2a>
    260c:	49 c7 44 24 60 ff ff 	mov    QWORD PTR [r12+0x60],0xffffffffffffffff
    2613:	ff ff 
    2615:	e8 8f 45 00 00       	call   6ba9 <abort>
    261a:	48 83 c0 01          	add    rax,0x1
    261e:	48 8d 3d bb 6a 20 00 	lea    rdi,[rip+0x206abb]        # 2090e0 <_ZL14g_handler_lock>
    2625:	49 89 44 24 60       	mov    QWORD PTR [r12+0x60],rax
    262a:	e8 21 36 00 00       	call   5c50 <sgx_spin_lock>
    262f:	48 8b 05 b2 6a 20 00 	mov    rax,QWORD PTR [rip+0x206ab2]        # 2090e8 <_ZL12g_first_node>
    2636:	48 85 c0             	test   rax,rax
    2639:	0f 84 e7 00 00 00    	je     2726 <internal_handle_exception+0x136>
    263f:	31 db                	xor    ebx,ebx
    2641:	0f 1f 80 00 00 00 00 	nop    DWORD PTR [rax+0x0]
    2648:	48 8b 40 08          	mov    rax,QWORD PTR [rax+0x8]
    264c:	48 83 c3 08          	add    rbx,0x8
    2650:	48 85 c0             	test   rax,rax
    2653:	75 f3                	jne    2648 <internal_handle_exception+0x58>
    2655:	48 85 db             	test   rbx,rbx
    2658:	0f 84 c8 00 00 00    	je     2726 <internal_handle_exception+0x136>
    265e:	48 89 df             	mov    rdi,rbx
    2661:	e8 3a 0f 00 00       	call   35a0 <dlmalloc>
    2666:	48 85 c0             	test   rax,rax
    2669:	49 89 c5             	mov    r13,rax
    266c:	0f 84 d8 00 00 00    	je     274a <internal_handle_exception+0x15a>
    2672:	48 8b 05 6f 6a 20 00 	mov    rax,QWORD PTR [rip+0x206a6f]        # 2090e8 <_ZL12g_first_node>
    2679:	48 85 c0             	test   rax,rax
    267c:	74 1e                	je     269c <internal_handle_exception+0xac>
    267e:	4c 89 ea             	mov    rdx,r13
    2681:	0f 1f 80 00 00 00 00 	nop    DWORD PTR [rax+0x0]
    2688:	48 8b 08             	mov    rcx,QWORD PTR [rax]
    268b:	48 8b 40 08          	mov    rax,QWORD PTR [rax+0x8]
    268f:	48 83 c2 08          	add    rdx,0x8
    2693:	48 89 4a f8          	mov    QWORD PTR [rdx-0x8],rcx
    2697:	48 85 c0             	test   rax,rax
    269a:	75 ec                	jne    2688 <internal_handle_exception+0x98>
    269c:	48 8d 3d 3d 6a 20 00 	lea    rdi,[rip+0x206a3d]        # 2090e0 <_ZL14g_handler_lock>
    26a3:	e8 08 36 00 00       	call   5cb0 <sgx_spin_unlock>
    26a8:	48 85 db             	test   rbx,rbx
    26ab:	74 55                	je     2702 <internal_handle_exception+0x112>
    26ad:	4d 89 ee             	mov    r14,r13
    26b0:	eb 10                	jmp    26c2 <internal_handle_exception+0xd2>
    26b2:	66 0f 1f 44 00 00    	nop    WORD PTR [rax+rax*1+0x0]
    26b8:	49 83 c6 08          	add    r14,0x8
    26bc:	48 83 eb 08          	sub    rbx,0x8
    26c0:	74 40                	je     2702 <internal_handle_exception+0x112>
    26c2:	49 8b 06             	mov    rax,QWORD PTR [r14]
    26c5:	48 33 05 0c 6a 20 00 	xor    rax,QWORD PTR [rip+0x206a0c]        # 2090d8 <_ZL12g_veh_cookie>
    26cc:	48 89 ef             	mov    rdi,rbp
    26cf:	ff d0                	call   rax
    26d1:	83 f8 ff             	cmp    eax,0xffffffff
    26d4:	75 e2                	jne    26b8 <internal_handle_exception+0xc8>
    26d6:	4c 89 ef             	mov    rdi,r13
    26d9:	e8 e2 28 00 00       	call   4fc0 <dlfree>
    26de:	48 8b 7d 20          	mov    rdi,QWORD PTR [rbp+0x20]
    26e2:	e8 b9 fe ff ff       	call   25a0 <is_valid_sp>
    26e7:	84 c0                	test   al,al
    26e9:	0f 84 1d ff ff ff    	je     260c <internal_handle_exception+0x1c>
    26ef:	49 83 6c 24 60 01    	sub    QWORD PTR [r12+0x60],0x1
    26f5:	48 89 ef             	mov    rdi,rbp
    26f8:	e8 bb 44 00 00       	call   6bb8 <continue_execution>
    26fd:	e9 0a ff ff ff       	jmp    260c <internal_handle_exception+0x1c>
    2702:	4c 89 ef             	mov    rdi,r13
    2705:	e8 b6 28 00 00       	call   4fc0 <dlfree>
    270a:	48 8b 7d 20          	mov    rdi,QWORD PTR [rbp+0x20]
    270e:	e8 8d fe ff ff       	call   25a0 <is_valid_sp>
    2713:	84 c0                	test   al,al
    2715:	0f 84 f1 fe ff ff    	je     260c <internal_handle_exception+0x1c>
    271b:	49 c7 44 24 60 ff ff 	mov    QWORD PTR [r12+0x60],0xffffffffffffffff
    2722:	ff ff 
    2724:	eb cf                	jmp    26f5 <internal_handle_exception+0x105>
    2726:	48 8d 3d b3 69 20 00 	lea    rdi,[rip+0x2069b3]        # 2090e0 <_ZL14g_handler_lock>
    272d:	31 db                	xor    ebx,ebx
    272f:	e8 7c 35 00 00       	call   5cb0 <sgx_spin_unlock>
    2734:	49 c7 44 24 60 ff ff 	mov    QWORD PTR [r12+0x60],0xffffffffffffffff
    273b:	ff ff 
    273d:	48 89 ef             	mov    rdi,rbp
    2740:	e8 73 44 00 00       	call   6bb8 <continue_execution>
    2745:	e9 14 ff ff ff       	jmp    265e <internal_handle_exception+0x6e>
    274a:	48 8d 3d 8f 69 20 00 	lea    rdi,[rip+0x20698f]        # 2090e0 <_ZL14g_handler_lock>
    2751:	e8 5a 35 00 00       	call   5cb0 <sgx_spin_unlock>
    2756:	e9 b1 fe ff ff       	jmp    260c <internal_handle_exception+0x1c>
    275b:	0f 1f 44 00 00       	nop    DWORD PTR [rax+rax*1+0x0]

0000000000002760 <trts_handle_exception>:
    2760:	41 55                	push   r13
    2762:	41 54                	push   r12
    2764:	55                   	push   rbp
    2765:	53                   	push   rbx
    2766:	48 89 fb             	mov    rbx,rdi
    2769:	48 83 ec 08          	sub    rsp,0x8
    276d:	e8 08 41 00 00       	call   687a <get_thread_data>
    2772:	48 85 c0             	test   rax,rax
    2775:	74 51                	je     27c8 <trts_handle_exception+0x68>
    2777:	48 85 db             	test   rbx,rbx
    277a:	74 4c                	je     27c8 <trts_handle_exception+0x68>
    277c:	48 89 df             	mov    rdi,rbx
    277f:	48 89 c5             	mov    rbp,rax
    2782:	e8 69 e3 ff ff       	call   af0 <check_static_stack_canary>
    2787:	85 c0                	test   eax,eax
    2789:	75 3d                	jne    27c8 <trts_handle_exception+0x68>
    278b:	e8 b7 40 00 00       	call   6847 <get_enclave_state>
    2790:	83 f8 02             	cmp    eax,0x2
    2793:	75 33                	jne    27c8 <trts_handle_exception+0x68>
    2795:	48 83 7d 60 ff       	cmp    QWORD PTR [rbp+0x60],0xffffffffffffffff
    279a:	74 2c                	je     27c8 <trts_handle_exception+0x68>
    279c:	48 8b 45 10          	mov    rax,QWORD PTR [rbp+0x10]
    27a0:	48 05 b0 02 01 00    	add    rax,0x102b0
    27a6:	48 39 c3             	cmp    rbx,rax
    27a9:	75 1d                	jne    27c8 <trts_handle_exception+0x68>
    27ab:	4c 8b 65 20          	mov    r12,QWORD PTR [rbp+0x20]
    27af:	4c 89 e0             	mov    rax,r12
    27b2:	48 25 00 f0 ff ff    	and    rax,0xfffffffffffff000
    27b8:	48 2d 00 10 00 00    	sub    rax,0x1000
    27be:	48 39 c3             	cmp    rbx,rax
    27c1:	74 25                	je     27e8 <trts_handle_exception+0x88>
    27c3:	0f 1f 44 00 00       	nop    DWORD PTR [rax+rax*1+0x0]
    27c8:	48 8d 05 d1 68 20 00 	lea    rax,[rip+0x2068d1]        # 2090a0 <g_enclave_state>
    27cf:	c7 00 03 00 00 00    	mov    DWORD PTR [rax],0x3
    27d5:	b8 06 10 00 00       	mov    eax,0x1006
    27da:	48 83 c4 08          	add    rsp,0x8
    27de:	5b                   	pop    rbx
    27df:	5d                   	pop    rbp
    27e0:	41 5c                	pop    r12
    27e2:	41 5d                	pop    r13
    27e4:	c3                   	ret    
    27e5:	0f 1f 00             	nop    DWORD PTR [rax]
    27e8:	49 8b 5c 24 20       	mov    rbx,QWORD PTR [r12+0x20]
    27ed:	31 f6                	xor    esi,esi
    27ef:	48 89 df             	mov    rdi,rbx
    27f2:	e8 69 fd ff ff       	call   2560 <is_stack_addr>
    27f7:	84 c0                	test   al,al
    27f9:	0f 84 81 00 00 00    	je     2880 <trts_handle_exception+0x120>
    27ff:	48 81 eb 18 01 00 00 	sub    rbx,0x118
    2806:	be 18 01 00 00       	mov    esi,0x118
    280b:	48 83 e3 f0          	and    rbx,0xfffffffffffffff0
    280f:	48 89 df             	mov    rdi,rbx
    2812:	e8 49 fd ff ff       	call   2560 <is_stack_addr>
    2817:	84 c0                	test   al,al
    2819:	74 65                	je     2880 <trts_handle_exception+0x120>
    281b:	4c 8d 6b f8          	lea    r13,[rbx-0x8]
    281f:	be 08 00 00 00       	mov    esi,0x8
    2824:	4c 89 ef             	mov    rdi,r13
    2827:	e8 34 fd ff ff       	call   2560 <is_stack_addr>
    282c:	84 c0                	test   al,al
    282e:	74 50                	je     2880 <trts_handle_exception+0x120>
    2830:	48 8b 85 98 00 00 00 	mov    rax,QWORD PTR [rbp+0x98]
    2837:	4c 39 e8             	cmp    rax,r13
    283a:	76 5b                	jbe    2897 <trts_handle_exception+0x137>
    283c:	48 8d 98 ff 0f 00 00 	lea    rbx,[rax+0xfff]
    2843:	4c 29 eb             	sub    rbx,r13
    2846:	48 81 e3 00 f0 ff ff 	and    rbx,0xfffffffffffff000
    284d:	48 39 d8             	cmp    rax,rbx
    2850:	76 2e                	jbe    2880 <trts_handle_exception+0x120>
    2852:	48 29 d8             	sub    rax,rbx
    2855:	48 3b 45 18          	cmp    rax,QWORD PTR [rbp+0x18]
    2859:	48 89 c7             	mov    rdi,rax
    285c:	72 22                	jb     2880 <trts_handle_exception+0x120>
    285e:	48 89 de             	mov    rsi,rbx
    2861:	48 c1 ee 0c          	shr    rsi,0xc
    2865:	48 85 f6             	test   rsi,rsi
    2868:	74 16                	je     2880 <trts_handle_exception+0x120>
    286a:	e8 21 ea ff ff       	call   1290 <apply_pages_within_exception>
    286f:	85 c0                	test   eax,eax
    2871:	75 0d                	jne    2880 <trts_handle_exception+0x120>
    2873:	48 29 9d 98 00 00 00 	sub    QWORD PTR [rbp+0x98],rbx
    287a:	e9 5b ff ff ff       	jmp    27da <trts_handle_exception+0x7a>
    287f:	90                   	nop
    2880:	48 8d 05 19 68 20 00 	lea    rax,[rip+0x206819]        # 2090a0 <g_enclave_state>
    2887:	c7 00 03 00 00 00    	mov    DWORD PTR [rax],0x3
    288d:	b8 09 10 00 00       	mov    eax,0x1009
    2892:	e9 43 ff ff ff       	jmp    27da <trts_handle_exception+0x7a>
    2897:	49 8b 84 24 88 00 00 	mov    rax,QWORD PTR [r12+0x88]
    289e:	00 
    289f:	48 3b 05 42 67 20 00 	cmp    rax,QWORD PTR [rip+0x206742]        # 208fe8 <_GLOBAL_OFFSET_TABLE_+0x28>
    28a6:	0f 84 05 01 00 00    	je     29b1 <trts_handle_exception+0x251>
    28ac:	41 80 bc 24 a3 00 00 	cmp    BYTE PTR [r12+0xa3],0x0
    28b3:	00 00 
    28b5:	0f 89 0d ff ff ff    	jns    27c8 <trts_handle_exception+0x68>
    28bb:	41 0f b6 94 24 a0 00 	movzx  edx,BYTE PTR [r12+0xa0]
    28c2:	00 00 
    28c4:	48 8d 0d 25 fd ff ff 	lea    rcx,[rip+0xfffffffffffffd25]        # 25f0 <internal_handle_exception>
    28cb:	89 93 90 00 00 00    	mov    DWORD PTR [rbx+0x90],edx
    28d1:	41 0f b6 94 24 a1 00 	movzx  edx,BYTE PTR [r12+0xa1]
    28d8:	00 00 
    28da:	83 e2 07             	and    edx,0x7
    28dd:	89 93 94 00 00 00    	mov    DWORD PTR [rbx+0x94],edx
    28e3:	49 8b 14 24          	mov    rdx,QWORD PTR [r12]
    28e7:	48 89 13             	mov    QWORD PTR [rbx],rdx
    28ea:	49 8b 54 24 08       	mov    rdx,QWORD PTR [r12+0x8]
    28ef:	48 89 53 08          	mov    QWORD PTR [rbx+0x8],rdx
    28f3:	49 8b 54 24 10       	mov    rdx,QWORD PTR [r12+0x10]
    28f8:	48 89 53 10          	mov    QWORD PTR [rbx+0x10],rdx
    28fc:	49 8b 54 24 18       	mov    rdx,QWORD PTR [r12+0x18]
    2901:	48 89 53 18          	mov    QWORD PTR [rbx+0x18],rdx
    2905:	49 8b 54 24 20       	mov    rdx,QWORD PTR [r12+0x20]
    290a:	48 89 53 20          	mov    QWORD PTR [rbx+0x20],rdx
    290e:	49 8b 54 24 28       	mov    rdx,QWORD PTR [r12+0x28]
    2913:	48 89 53 28          	mov    QWORD PTR [rbx+0x28],rdx
    2917:	49 8b 54 24 30       	mov    rdx,QWORD PTR [r12+0x30]
    291c:	48 89 53 30          	mov    QWORD PTR [rbx+0x30],rdx
    2920:	49 8b 54 24 38       	mov    rdx,QWORD PTR [r12+0x38]
    2925:	48 89 53 38          	mov    QWORD PTR [rbx+0x38],rdx
    2929:	49 8b 94 24 80 00 00 	mov    rdx,QWORD PTR [r12+0x80]
    2930:	00 
    2931:	48 89 83 88 00 00 00 	mov    QWORD PTR [rbx+0x88],rax
    2938:	48 89 93 80 00 00 00 	mov    QWORD PTR [rbx+0x80],rdx
    293f:	49 8b 54 24 40       	mov    rdx,QWORD PTR [r12+0x40]
    2944:	48 89 53 40          	mov    QWORD PTR [rbx+0x40],rdx
    2948:	49 8b 54 24 48       	mov    rdx,QWORD PTR [r12+0x48]
    294d:	48 89 53 48          	mov    QWORD PTR [rbx+0x48],rdx
    2951:	49 8b 54 24 50       	mov    rdx,QWORD PTR [r12+0x50]
    2956:	48 89 53 50          	mov    QWORD PTR [rbx+0x50],rdx
    295a:	49 8b 54 24 58       	mov    rdx,QWORD PTR [r12+0x58]
    295f:	48 89 53 58          	mov    QWORD PTR [rbx+0x58],rdx
    2963:	49 8b 54 24 60       	mov    rdx,QWORD PTR [r12+0x60]
    2968:	48 89 53 60          	mov    QWORD PTR [rbx+0x60],rdx
    296c:	49 8b 54 24 68       	mov    rdx,QWORD PTR [r12+0x68]
    2971:	48 89 53 68          	mov    QWORD PTR [rbx+0x68],rdx
    2975:	49 8b 54 24 70       	mov    rdx,QWORD PTR [r12+0x70]
    297a:	48 89 53 70          	mov    QWORD PTR [rbx+0x70],rdx
    297e:	49 8b 54 24 78       	mov    rdx,QWORD PTR [r12+0x78]
    2983:	48 89 53 78          	mov    QWORD PTR [rbx+0x78],rdx
    2987:	49 89 8c 24 88 00 00 	mov    QWORD PTR [r12+0x88],rcx
    298e:	00 
    298f:	4d 89 6c 24 20       	mov    QWORD PTR [r12+0x20],r13
    2994:	49 89 1c 24          	mov    QWORD PTR [r12],rbx
    2998:	49 89 5c 24 38       	mov    QWORD PTR [r12+0x38],rbx
    299d:	48 89 43 f8          	mov    QWORD PTR [rbx-0x8],rax
    29a1:	31 c0                	xor    eax,eax
    29a3:	41 80 a4 24 a3 00 00 	and    BYTE PTR [r12+0xa3],0x7f
    29aa:	00 7f 
    29ac:	e9 29 fe ff ff       	jmp    27da <trts_handle_exception+0x7a>
    29b1:	49 83 3c 24 00       	cmp    QWORD PTR [r12],0x0
    29b6:	0f 85 f0 fe ff ff    	jne    28ac <trts_handle_exception+0x14c>
    29bc:	48 83 c0 03          	add    rax,0x3
    29c0:	49 83 8c 24 80 00 00 	or     QWORD PTR [r12+0x80],0x1
    29c7:	00 01 
    29c9:	49 89 84 24 88 00 00 	mov    QWORD PTR [r12+0x88],rax
    29d0:	00 
    29d1:	31 c0                	xor    eax,eax
    29d3:	e9 02 fe ff ff       	jmp    27da <trts_handle_exception+0x7a>
    29d8:	0f 1f 84 00 00 00 00 	nop    DWORD PTR [rax+rax*1+0x0]
    29df:	00 

00000000000029e0 <get_xfeature_state>:
    29e0:	48 83 ec 08          	sub    rsp,0x8
    29e4:	e8 47 38 00 00       	call   6230 <sgx_self_report>
    29e9:	48 8b 40 38          	mov    rax,QWORD PTR [rax+0x38]
    29ed:	31 d2                	xor    edx,edx
    29ef:	48 83 f8 03          	cmp    rax,0x3
    29f3:	0f 95 c2             	setne  dl
    29f6:	89 15 a8 66 20 00    	mov    DWORD PTR [rip+0x2066a8],edx        # 2090a4 <g_xsave_enabled>
    29fc:	48 83 c4 08          	add    rsp,0x8
    2a00:	c3                   	ret    
    2a01:	66 2e 0f 1f 84 00 00 	nop    WORD PTR cs:[rax+rax*1+0x0]
    2a08:	00 00 00 
    2a0b:	0f 1f 44 00 00       	nop    DWORD PTR [rax+rax*1+0x0]

0000000000002a10 <do_relocs>:
    2a10:	48 01 fe             	add    rsi,rdi
    2a13:	48 01 fa             	add    rdx,rdi
    2a16:	48 85 c9             	test   rcx,rcx
    2a19:	0f 84 42 02 00 00    	je     2c61 <do_relocs+0x251>
    2a1f:	55                   	push   rbp
    2a20:	4c 8d 15 01 42 00 00 	lea    r10,[rip+0x4201]        # 6c28 <g_dyn_entry_table+0x8>
    2a27:	53                   	push   rbx
    2a28:	45 31 c9             	xor    r9d,r9d
    2a2b:	0f 1f 44 00 00       	nop    DWORD PTR [rax+rax*1+0x0]
    2a30:	4c 8b 46 08          	mov    r8,QWORD PTR [rsi+0x8]
    2a34:	4c 8b 1e             	mov    r11,QWORD PTR [rsi]
    2a37:	44 89 c0             	mov    eax,r8d
    2a3a:	49 01 fb             	add    r11,rdi
    2a3d:	48 83 f8 12          	cmp    rax,0x12
    2a41:	0f 87 cb 00 00 00    	ja     2b12 <do_relocs+0x102>
    2a47:	49 63 04 82          	movsxd rax,DWORD PTR [r10+rax*4]
    2a4b:	4c 01 d0             	add    rax,r10
    2a4e:	ff e0                	jmp    rax
    2a50:	48 8b 58 28          	mov    rbx,QWORD PTR [rax+0x28]
    2a54:	48 8b 40 30          	mov    rax,QWORD PTR [rax+0x30]
    2a58:	48 83 f8 01          	cmp    rax,0x1
    2a5c:	76 0b                	jbe    2a69 <do_relocs+0x59>
    2a5e:	48 8d 5c 03 ff       	lea    rbx,[rbx+rax*1-0x1]
    2a63:	48 f7 d8             	neg    rax
    2a66:	48 21 c3             	and    rbx,rax
    2a69:	48 85 db             	test   rbx,rbx
    2a6c:	0f 84 a0 00 00 00    	je     2b12 <do_relocs+0x102>
    2a72:	48 8b 46 10          	mov    rax,QWORD PTR [rsi+0x10]
    2a76:	49 03 40 08          	add    rax,QWORD PTR [r8+0x8]
    2a7a:	48 29 d8             	sub    rax,rbx
    2a7d:	49 89 03             	mov    QWORD PTR [r11],rax
    2a80:	49 83 c1 01          	add    r9,0x1
    2a84:	48 83 c6 18          	add    rsi,0x18
    2a88:	4c 39 c9             	cmp    rcx,r9
    2a8b:	75 a3                	jne    2a30 <do_relocs+0x20>
    2a8d:	31 c0                	xor    eax,eax
    2a8f:	5b                   	pop    rbx
    2a90:	5d                   	pop    rbp
    2a91:	c3                   	ret    
    2a92:	66 0f 1f 44 00 00    	nop    WORD PTR [rax+rax*1+0x0]
    2a98:	49 c1 e8 20          	shr    r8,0x20
    2a9c:	4b 8d 04 40          	lea    rax,[r8+r8*2]
    2aa0:	4c 8d 04 c2          	lea    r8,[rdx+rax*8]
    2aa4:	41 0f b6 40 04       	movzx  eax,BYTE PTR [r8+0x4]
    2aa9:	c0 e8 04             	shr    al,0x4
    2aac:	3c 02                	cmp    al,0x2
    2aae:	0f 84 44 01 00 00    	je     2bf8 <do_relocs+0x1e8>
    2ab4:	4d 85 c0             	test   r8,r8
    2ab7:	74 c7                	je     2a80 <do_relocs+0x70>
    2ab9:	81 3f 7f 45 4c 46    	cmp    DWORD PTR [rdi],0x464c457f
    2abf:	75 51                	jne    2b12 <do_relocs+0x102>
    2ac1:	66 83 7f 10 03       	cmp    WORD PTR [rdi+0x10],0x3
    2ac6:	75 4a                	jne    2b12 <do_relocs+0x102>
    2ac8:	48 8b 5f 20          	mov    rbx,QWORD PTR [rdi+0x20]
    2acc:	48 01 fb             	add    rbx,rdi
    2acf:	48 85 db             	test   rbx,rbx
    2ad2:	48 89 d8             	mov    rax,rbx
    2ad5:	74 3b                	je     2b12 <do_relocs+0x102>
    2ad7:	0f b7 6f 38          	movzx  ebp,WORD PTR [rdi+0x38]
    2adb:	85 ed                	test   ebp,ebp
    2add:	74 33                	je     2b12 <do_relocs+0x102>
    2adf:	83 3b 07             	cmp    DWORD PTR [rbx],0x7
    2ae2:	0f 84 68 ff ff ff    	je     2a50 <do_relocs+0x40>
    2ae8:	83 ed 01             	sub    ebp,0x1
    2aeb:	48 8d 1c ed 00 00 00 	lea    rbx,[rbp*8+0x0]
    2af2:	00 
    2af3:	48 29 eb             	sub    rbx,rbp
    2af6:	48 8d 5c d8 38       	lea    rbx,[rax+rbx*8+0x38]
    2afb:	eb 0c                	jmp    2b09 <do_relocs+0xf9>
    2afd:	0f 1f 00             	nop    DWORD PTR [rax]
    2b00:	83 38 07             	cmp    DWORD PTR [rax],0x7
    2b03:	0f 84 47 ff ff ff    	je     2a50 <do_relocs+0x40>
    2b09:	48 83 c0 38          	add    rax,0x38
    2b0d:	48 39 c3             	cmp    rbx,rax
    2b10:	75 ee                	jne    2b00 <do_relocs+0xf0>
    2b12:	b8 ff ff ff ff       	mov    eax,0xffffffff
    2b17:	5b                   	pop    rbx
    2b18:	5d                   	pop    rbp
    2b19:	c3                   	ret    
    2b1a:	66 0f 1f 44 00 00    	nop    WORD PTR [rax+rax*1+0x0]
    2b20:	49 c1 e8 20          	shr    r8,0x20
    2b24:	4b 8d 04 40          	lea    rax,[r8+r8*2]
    2b28:	4c 8d 04 c2          	lea    r8,[rdx+rax*8]
    2b2c:	41 0f b6 40 04       	movzx  eax,BYTE PTR [r8+0x4]
    2b31:	c0 e8 04             	shr    al,0x4
    2b34:	3c 02                	cmp    al,0x2
    2b36:	0f 84 04 01 00 00    	je     2c40 <do_relocs+0x230>
    2b3c:	4d 85 c0             	test   r8,r8
    2b3f:	0f 84 3b ff ff ff    	je     2a80 <do_relocs+0x70>
    2b45:	48 8b 46 10          	mov    rax,QWORD PTR [rsi+0x10]
    2b49:	49 03 40 08          	add    rax,QWORD PTR [r8+0x8]
    2b4d:	49 83 c1 01          	add    r9,0x1
    2b51:	48 83 c6 18          	add    rsi,0x18
    2b55:	4c 39 c9             	cmp    rcx,r9
    2b58:	49 89 03             	mov    QWORD PTR [r11],rax
    2b5b:	0f 85 cf fe ff ff    	jne    2a30 <do_relocs+0x20>
    2b61:	e9 27 ff ff ff       	jmp    2a8d <do_relocs+0x7d>
    2b66:	66 2e 0f 1f 84 00 00 	nop    WORD PTR cs:[rax+rax*1+0x0]
    2b6d:	00 00 00 
    2b70:	49 83 c1 01          	add    r9,0x1
    2b74:	48 83 c6 18          	add    rsi,0x18
    2b78:	49 c7 03 01 00 00 00 	mov    QWORD PTR [r11],0x1
    2b7f:	4c 39 c9             	cmp    rcx,r9
    2b82:	0f 85 a8 fe ff ff    	jne    2a30 <do_relocs+0x20>
    2b88:	e9 00 ff ff ff       	jmp    2a8d <do_relocs+0x7d>
    2b8d:	0f 1f 00             	nop    DWORD PTR [rax]
    2b90:	48 8b 46 10          	mov    rax,QWORD PTR [rsi+0x10]
    2b94:	49 83 c1 01          	add    r9,0x1
    2b98:	48 83 c6 18          	add    rsi,0x18
    2b9c:	48 01 f8             	add    rax,rdi
    2b9f:	4c 39 c9             	cmp    rcx,r9
    2ba2:	49 89 03             	mov    QWORD PTR [r11],rax
    2ba5:	0f 85 85 fe ff ff    	jne    2a30 <do_relocs+0x20>
    2bab:	e9 dd fe ff ff       	jmp    2a8d <do_relocs+0x7d>
    2bb0:	49 c1 e8 20          	shr    r8,0x20
    2bb4:	4b 8d 04 40          	lea    rax,[r8+r8*2]
    2bb8:	4c 8d 04 c2          	lea    r8,[rdx+rax*8]
    2bbc:	41 0f b6 40 04       	movzx  eax,BYTE PTR [r8+0x4]
    2bc1:	c0 e8 04             	shr    al,0x4
    2bc4:	3c 02                	cmp    al,0x2
    2bc6:	74 58                	je     2c20 <do_relocs+0x210>
    2bc8:	4d 85 c0             	test   r8,r8
    2bcb:	0f 84 af fe ff ff    	je     2a80 <do_relocs+0x70>
    2bd1:	48 8b 46 10          	mov    rax,QWORD PTR [rsi+0x10]
    2bd5:	49 83 c1 01          	add    r9,0x1
    2bd9:	48 83 c6 18          	add    rsi,0x18
    2bdd:	48 01 f8             	add    rax,rdi
    2be0:	49 03 40 08          	add    rax,QWORD PTR [r8+0x8]
    2be4:	4c 39 c9             	cmp    rcx,r9
    2be7:	49 89 03             	mov    QWORD PTR [r11],rax
    2bea:	0f 85 40 fe ff ff    	jne    2a30 <do_relocs+0x20>
    2bf0:	e9 98 fe ff ff       	jmp    2a8d <do_relocs+0x7d>
    2bf5:	0f 1f 00             	nop    DWORD PTR [rax]
    2bf8:	49 83 78 08 00       	cmp    QWORD PTR [r8+0x8],0x0
    2bfd:	0f 85 b1 fe ff ff    	jne    2ab4 <do_relocs+0xa4>
    2c03:	49 83 c1 01          	add    r9,0x1
    2c07:	48 83 c6 18          	add    rsi,0x18
    2c0b:	4c 39 c9             	cmp    rcx,r9
    2c0e:	0f 85 1c fe ff ff    	jne    2a30 <do_relocs+0x20>
    2c14:	e9 74 fe ff ff       	jmp    2a8d <do_relocs+0x7d>
    2c19:	0f 1f 80 00 00 00 00 	nop    DWORD PTR [rax+0x0]
    2c20:	49 83 78 08 00       	cmp    QWORD PTR [r8+0x8],0x0
    2c25:	75 a1                	jne    2bc8 <do_relocs+0x1b8>
    2c27:	49 83 c1 01          	add    r9,0x1
    2c2b:	48 83 c6 18          	add    rsi,0x18
    2c2f:	4c 39 c9             	cmp    rcx,r9
    2c32:	0f 85 f8 fd ff ff    	jne    2a30 <do_relocs+0x20>
    2c38:	e9 50 fe ff ff       	jmp    2a8d <do_relocs+0x7d>
    2c3d:	0f 1f 00             	nop    DWORD PTR [rax]
    2c40:	49 83 78 08 00       	cmp    QWORD PTR [r8+0x8],0x0
    2c45:	0f 85 f1 fe ff ff    	jne    2b3c <do_relocs+0x12c>
    2c4b:	49 83 c1 01          	add    r9,0x1
    2c4f:	48 83 c6 18          	add    rsi,0x18
    2c53:	4c 39 c9             	cmp    rcx,r9
    2c56:	0f 85 d4 fd ff ff    	jne    2a30 <do_relocs+0x20>
    2c5c:	e9 2c fe ff ff       	jmp    2a8d <do_relocs+0x7d>
    2c61:	31 c0                	xor    eax,eax
    2c63:	c3                   	ret    
    2c64:	66 2e 0f 1f 84 00 00 	nop    WORD PTR cs:[rax+rax*1+0x0]
    2c6b:	00 00 00 
    2c6e:	66 90                	xchg   ax,ax

0000000000002c70 <relocate_enclave>:
    2c70:	48 85 ff             	test   rdi,rdi
    2c73:	0f 84 c0 01 00 00    	je     2e39 <relocate_enclave+0x1c9>
    2c79:	81 3f 7f 45 4c 46    	cmp    DWORD PTR [rdi],0x464c457f
    2c7f:	0f 85 b4 01 00 00    	jne    2e39 <relocate_enclave+0x1c9>
    2c85:	66 83 7f 10 03       	cmp    WORD PTR [rdi+0x10],0x3
    2c8a:	0f 85 a9 01 00 00    	jne    2e39 <relocate_enclave+0x1c9>
    2c90:	41 57                	push   r15
    2c92:	41 56                	push   r14
    2c94:	41 55                	push   r13
    2c96:	41 54                	push   r12
    2c98:	55                   	push   rbp
    2c99:	53                   	push   rbx
    2c9a:	48 89 fb             	mov    rbx,rdi
    2c9d:	48 83 ec 10          	sub    rsp,0x10
    2ca1:	48 03 5f 20          	add    rbx,QWORD PTR [rdi+0x20]
    2ca5:	0f 84 ff 00 00 00    	je     2daa <relocate_enclave+0x13a>
    2cab:	31 ed                	xor    ebp,ebp
    2cad:	66 83 7f 38 00       	cmp    WORD PTR [rdi+0x38],0x0
    2cb2:	49 89 fd             	mov    r13,rdi
    2cb5:	4c 8d 25 b8 3f 00 00 	lea    r12,[rip+0x3fb8]        # 6c74 <g_dyn_entry_table+0x54>
    2cbc:	75 1e                	jne    2cdc <relocate_enclave+0x6c>
    2cbe:	e9 65 01 00 00       	jmp    2e28 <relocate_enclave+0x1b8>
    2cc3:	0f 1f 44 00 00       	nop    DWORD PTR [rax+rax*1+0x0]
    2cc8:	41 0f b7 45 38       	movzx  eax,WORD PTR [r13+0x38]
    2ccd:	83 c5 01             	add    ebp,0x1
    2cd0:	48 83 c3 38          	add    rbx,0x38
    2cd4:	39 e8                	cmp    eax,ebp
    2cd6:	0f 86 4c 01 00 00    	jbe    2e28 <relocate_enclave+0x1b8>
    2cdc:	83 3b 02             	cmp    DWORD PTR [rbx],0x2
    2cdf:	75 e7                	jne    2cc8 <relocate_enclave+0x58>
    2ce1:	48 8b 53 20          	mov    rdx,QWORD PTR [rbx+0x20]
    2ce5:	48 8b 43 18          	mov    rax,QWORD PTR [rbx+0x18]
    2ce9:	48 c1 ea 04          	shr    rdx,0x4
    2ced:	4c 01 e8             	add    rax,r13
    2cf0:	48 85 d2             	test   rdx,rdx
    2cf3:	49 89 c0             	mov    r8,rax
    2cf6:	74 d0                	je     2cc8 <relocate_enclave+0x58>
    2cf8:	4c 8b 08             	mov    r9,QWORD PTR [rax]
    2cfb:	4d 85 c9             	test   r9,r9
    2cfe:	74 c8                	je     2cc8 <relocate_enclave+0x58>
    2d00:	48 c1 e2 04          	shl    rdx,0x4
    2d04:	45 31 ff             	xor    r15d,r15d
    2d07:	45 31 f6             	xor    r14d,r14d
    2d0a:	48 01 c2             	add    rdx,rax
    2d0d:	45 31 d2             	xor    r10d,r10d
    2d10:	31 c0                	xor    eax,eax
    2d12:	31 f6                	xor    esi,esi
    2d14:	45 31 db             	xor    r11d,r11d
    2d17:	66 0f 1f 84 00 00 00 	nop    WORD PTR [rax+rax*1+0x0]
    2d1e:	00 00 
    2d20:	49 83 f9 17          	cmp    r9,0x17
    2d24:	77 12                	ja     2d38 <relocate_enclave+0xc8>
    2d26:	4b 63 3c 8c          	movsxd rdi,DWORD PTR [r12+r9*4]
    2d2a:	4c 01 e7             	add    rdi,r12
    2d2d:	ff e7                	jmp    rdi
    2d2f:	90                   	nop
    2d30:	4d 8b 50 08          	mov    r10,QWORD PTR [r8+0x8]
    2d34:	0f 1f 40 00          	nop    DWORD PTR [rax+0x0]
    2d38:	49 83 c0 10          	add    r8,0x10
    2d3c:	49 39 d0             	cmp    r8,rdx
    2d3f:	74 08                	je     2d49 <relocate_enclave+0xd9>
    2d41:	4d 8b 08             	mov    r9,QWORD PTR [r8]
    2d44:	4d 85 c9             	test   r9,r9
    2d47:	75 d7                	jne    2d20 <relocate_enclave+0xb0>
    2d49:	48 85 f6             	test   rsi,rsi
    2d4c:	0f 84 be 00 00 00    	je     2e10 <relocate_enclave+0x1a0>
    2d52:	4d 85 f6             	test   r14,r14
    2d55:	4c 89 14 24          	mov    QWORD PTR [rsp],r10
    2d59:	74 4f                	je     2daa <relocate_enclave+0x13a>
    2d5b:	31 d2                	xor    edx,edx
    2d5d:	4c 89 ef             	mov    rdi,r13
    2d60:	4c 89 5c 24 08       	mov    QWORD PTR [rsp+0x8],r11
    2d65:	49 f7 f6             	div    r14
    2d68:	4c 89 da             	mov    rdx,r11
    2d6b:	48 89 c1             	mov    rcx,rax
    2d6e:	e8 9d fc ff ff       	call   2a10 <do_relocs>
    2d73:	85 c0                	test   eax,eax
    2d75:	4c 8b 5c 24 08       	mov    r11,QWORD PTR [rsp+0x8]
    2d7a:	4c 8b 14 24          	mov    r10,QWORD PTR [rsp]
    2d7e:	75 2a                	jne    2daa <relocate_enclave+0x13a>
    2d80:	4d 85 d2             	test   r10,r10
    2d83:	0f 84 3f ff ff ff    	je     2cc8 <relocate_enclave+0x58>
    2d89:	31 d2                	xor    edx,edx
    2d8b:	4c 89 f8             	mov    rax,r15
    2d8e:	4c 89 d6             	mov    rsi,r10
    2d91:	49 f7 f6             	div    r14
    2d94:	4c 89 ef             	mov    rdi,r13
    2d97:	4c 89 da             	mov    rdx,r11
    2d9a:	48 89 c1             	mov    rcx,rax
    2d9d:	e8 6e fc ff ff       	call   2a10 <do_relocs>
    2da2:	85 c0                	test   eax,eax
    2da4:	0f 84 1e ff ff ff    	je     2cc8 <relocate_enclave+0x58>
    2daa:	48 83 c4 10          	add    rsp,0x10
    2dae:	b8 ff ff ff ff       	mov    eax,0xffffffff
    2db3:	5b                   	pop    rbx
    2db4:	5d                   	pop    rbp
    2db5:	41 5c                	pop    r12
    2db7:	41 5d                	pop    r13
    2db9:	41 5e                	pop    r14
    2dbb:	41 5f                	pop    r15
    2dbd:	c3                   	ret    
    2dbe:	66 90                	xchg   ax,ax
    2dc0:	4d 8b 58 08          	mov    r11,QWORD PTR [r8+0x8]
    2dc4:	e9 6f ff ff ff       	jmp    2d38 <relocate_enclave+0xc8>
    2dc9:	0f 1f 80 00 00 00 00 	nop    DWORD PTR [rax+0x0]
    2dd0:	4d 8b 78 08          	mov    r15,QWORD PTR [r8+0x8]
    2dd4:	e9 5f ff ff ff       	jmp    2d38 <relocate_enclave+0xc8>
    2dd9:	0f 1f 80 00 00 00 00 	nop    DWORD PTR [rax+0x0]
    2de0:	49 8b 40 08          	mov    rax,QWORD PTR [r8+0x8]
    2de4:	e9 4f ff ff ff       	jmp    2d38 <relocate_enclave+0xc8>
    2de9:	0f 1f 80 00 00 00 00 	nop    DWORD PTR [rax+0x0]
    2df0:	49 8b 70 08          	mov    rsi,QWORD PTR [r8+0x8]
    2df4:	e9 3f ff ff ff       	jmp    2d38 <relocate_enclave+0xc8>
    2df9:	0f 1f 80 00 00 00 00 	nop    DWORD PTR [rax+0x0]
    2e00:	4d 8b 70 08          	mov    r14,QWORD PTR [r8+0x8]
    2e04:	e9 2f ff ff ff       	jmp    2d38 <relocate_enclave+0xc8>
    2e09:	0f 1f 80 00 00 00 00 	nop    DWORD PTR [rax+0x0]
    2e10:	4d 85 d2             	test   r10,r10
    2e13:	0f 84 af fe ff ff    	je     2cc8 <relocate_enclave+0x58>
    2e19:	4d 85 f6             	test   r14,r14
    2e1c:	0f 85 67 ff ff ff    	jne    2d89 <relocate_enclave+0x119>
    2e22:	eb 86                	jmp    2daa <relocate_enclave+0x13a>
    2e24:	0f 1f 40 00          	nop    DWORD PTR [rax+0x0]
    2e28:	48 83 c4 10          	add    rsp,0x10
    2e2c:	31 c0                	xor    eax,eax
    2e2e:	5b                   	pop    rbx
    2e2f:	5d                   	pop    rbp
    2e30:	41 5c                	pop    r12
    2e32:	41 5d                	pop    r13
    2e34:	41 5e                	pop    r14
    2e36:	41 5f                	pop    r15
    2e38:	c3                   	ret    
    2e39:	b8 ff ff ff ff       	mov    eax,0xffffffff
    2e3e:	c3                   	ret    
    2e3f:	90                   	nop

0000000000002e40 <elf_tls_info>:
    2e40:	48 85 ff             	test   rdi,rdi
    2e43:	b8 ff ff ff ff       	mov    eax,0xffffffff
    2e48:	74 08                	je     2e52 <elf_tls_info+0x12>
    2e4a:	81 3f 7f 45 4c 46    	cmp    DWORD PTR [rdi],0x464c457f
    2e50:	74 06                	je     2e58 <elf_tls_info+0x18>
    2e52:	f3 c3                	repz ret 
    2e54:	0f 1f 40 00          	nop    DWORD PTR [rax+0x0]
    2e58:	66 83 7f 10 03       	cmp    WORD PTR [rdi+0x10],0x3
    2e5d:	75 f3                	jne    2e52 <elf_tls_info+0x12>
    2e5f:	48 8b 47 20          	mov    rax,QWORD PTR [rdi+0x20]
    2e63:	48 01 f8             	add    rax,rdi
    2e66:	48 85 f6             	test   rsi,rsi
    2e69:	41 0f 94 c0          	sete   r8b
    2e6d:	48 85 d2             	test   rdx,rdx
    2e70:	0f 94 c1             	sete   cl
    2e73:	41 08 c8             	or     r8b,cl
    2e76:	75 61                	jne    2ed9 <elf_tls_info+0x99>
    2e78:	48 85 c0             	test   rax,rax
    2e7b:	74 5c                	je     2ed9 <elf_tls_info+0x99>
    2e7d:	0f b7 4f 38          	movzx  ecx,WORD PTR [rdi+0x38]
    2e81:	48 c7 06 00 00 00 00 	mov    QWORD PTR [rsi],0x0
    2e88:	48 c7 02 00 00 00 00 	mov    QWORD PTR [rdx],0x0
    2e8f:	85 c9                	test   ecx,ecx
    2e91:	74 2b                	je     2ebe <elf_tls_info+0x7e>
    2e93:	83 38 07             	cmp    DWORD PTR [rax],0x7
    2e96:	74 30                	je     2ec8 <elf_tls_info+0x88>
    2e98:	44 8d 41 ff          	lea    r8d,[rcx-0x1]
    2e9c:	4a 8d 0c c5 00 00 00 	lea    rcx,[r8*8+0x0]
    2ea3:	00 
    2ea4:	4c 29 c1             	sub    rcx,r8
    2ea7:	48 8d 4c c8 38       	lea    rcx,[rax+rcx*8+0x38]
    2eac:	eb 07                	jmp    2eb5 <elf_tls_info+0x75>
    2eae:	66 90                	xchg   ax,ax
    2eb0:	83 38 07             	cmp    DWORD PTR [rax],0x7
    2eb3:	74 13                	je     2ec8 <elf_tls_info+0x88>
    2eb5:	48 83 c0 38          	add    rax,0x38
    2eb9:	48 39 c8             	cmp    rax,rcx
    2ebc:	75 f2                	jne    2eb0 <elf_tls_info+0x70>
    2ebe:	31 c0                	xor    eax,eax
    2ec0:	c3                   	ret    
    2ec1:	0f 1f 80 00 00 00 00 	nop    DWORD PTR [rax+0x0]
    2ec8:	48 03 78 10          	add    rdi,QWORD PTR [rax+0x10]
    2ecc:	48 89 3e             	mov    QWORD PTR [rsi],rdi
    2ecf:	48 8b 40 20          	mov    rax,QWORD PTR [rax+0x20]
    2ed3:	48 89 02             	mov    QWORD PTR [rdx],rax
    2ed6:	31 c0                	xor    eax,eax
    2ed8:	c3                   	ret    
    2ed9:	b8 ff ff ff ff       	mov    eax,0xffffffff
    2ede:	c3                   	ret    
    2edf:	90                   	nop

0000000000002ee0 <elf_get_init_array>:
    2ee0:	48 85 ff             	test   rdi,rdi
    2ee3:	b8 ff ff ff ff       	mov    eax,0xffffffff
    2ee8:	74 08                	je     2ef2 <elf_get_init_array+0x12>
    2eea:	81 3f 7f 45 4c 46    	cmp    DWORD PTR [rdi],0x464c457f
    2ef0:	74 06                	je     2ef8 <elf_get_init_array+0x18>
    2ef2:	f3 c3                	repz ret 
    2ef4:	0f 1f 40 00          	nop    DWORD PTR [rax+0x0]
    2ef8:	66 83 7f 10 03       	cmp    WORD PTR [rdi+0x10],0x3
    2efd:	75 f3                	jne    2ef2 <elf_get_init_array+0x12>
    2eff:	48 8b 4f 20          	mov    rcx,QWORD PTR [rdi+0x20]
    2f03:	48 01 f9             	add    rcx,rdi
    2f06:	48 85 f6             	test   rsi,rsi
    2f09:	41 0f 94 c0          	sete   r8b
    2f0d:	48 85 d2             	test   rdx,rdx
    2f10:	0f 94 c0             	sete   al
    2f13:	41 08 c0             	or     r8b,al
    2f16:	0f 85 97 00 00 00    	jne    2fb3 <elf_get_init_array+0xd3>
    2f1c:	48 85 c9             	test   rcx,rcx
    2f1f:	0f 84 8e 00 00 00    	je     2fb3 <elf_get_init_array+0xd3>
    2f25:	0f b7 47 38          	movzx  eax,WORD PTR [rdi+0x38]
    2f29:	48 c7 06 00 00 00 00 	mov    QWORD PTR [rsi],0x0
    2f30:	48 c7 02 00 00 00 00 	mov    QWORD PTR [rdx],0x0
    2f37:	85 c0                	test   eax,eax
    2f39:	74 75                	je     2fb0 <elf_get_init_array+0xd0>
    2f3b:	44 8d 40 ff          	lea    r8d,[rax-0x1]
    2f3f:	4a 8d 04 c5 00 00 00 	lea    rax,[r8*8+0x0]
    2f46:	00 
    2f47:	4c 29 c0             	sub    rax,r8
    2f4a:	4c 8d 54 c1 38       	lea    r10,[rcx+rax*8+0x38]
    2f4f:	eb 10                	jmp    2f61 <elf_get_init_array+0x81>
    2f51:	0f 1f 80 00 00 00 00 	nop    DWORD PTR [rax+0x0]
    2f58:	48 83 c1 38          	add    rcx,0x38
    2f5c:	4c 39 d1             	cmp    rcx,r10
    2f5f:	74 4f                	je     2fb0 <elf_get_init_array+0xd0>
    2f61:	83 39 02             	cmp    DWORD PTR [rcx],0x2
    2f64:	75 f2                	jne    2f58 <elf_get_init_array+0x78>
    2f66:	4c 8b 49 20          	mov    r9,QWORD PTR [rcx+0x20]
    2f6a:	48 8b 41 18          	mov    rax,QWORD PTR [rcx+0x18]
    2f6e:	49 c1 e9 04          	shr    r9,0x4
    2f72:	48 01 f8             	add    rax,rdi
    2f75:	4d 85 c9             	test   r9,r9
    2f78:	74 de                	je     2f58 <elf_get_init_array+0x78>
    2f7a:	49 c1 e1 04          	shl    r9,0x4
    2f7e:	49 01 c1             	add    r9,rax
    2f81:	eb 1b                	jmp    2f9e <elf_get_init_array+0xbe>
    2f83:	0f 1f 44 00 00       	nop    DWORD PTR [rax+rax*1+0x0]
    2f88:	49 83 f8 1b          	cmp    r8,0x1b
    2f8c:	75 07                	jne    2f95 <elf_get_init_array+0xb5>
    2f8e:	4c 8b 40 08          	mov    r8,QWORD PTR [rax+0x8]
    2f92:	4c 89 02             	mov    QWORD PTR [rdx],r8
    2f95:	48 83 c0 10          	add    rax,0x10
    2f99:	49 39 c1             	cmp    r9,rax
    2f9c:	74 ba                	je     2f58 <elf_get_init_array+0x78>
    2f9e:	4c 8b 00             	mov    r8,QWORD PTR [rax]
    2fa1:	49 83 f8 19          	cmp    r8,0x19
    2fa5:	75 e1                	jne    2f88 <elf_get_init_array+0xa8>
    2fa7:	4c 8b 40 08          	mov    r8,QWORD PTR [rax+0x8]
    2fab:	4c 89 06             	mov    QWORD PTR [rsi],r8
    2fae:	eb e5                	jmp    2f95 <elf_get_init_array+0xb5>
    2fb0:	31 c0                	xor    eax,eax
    2fb2:	c3                   	ret    
    2fb3:	b8 ff ff ff ff       	mov    eax,0xffffffff
    2fb8:	c3                   	ret    
    2fb9:	0f 1f 80 00 00 00 00 	nop    DWORD PTR [rax+0x0]

0000000000002fc0 <elf_get_uninit_array>:
    2fc0:	48 85 ff             	test   rdi,rdi
    2fc3:	b8 ff ff ff ff       	mov    eax,0xffffffff
    2fc8:	74 08                	je     2fd2 <elf_get_uninit_array+0x12>
    2fca:	81 3f 7f 45 4c 46    	cmp    DWORD PTR [rdi],0x464c457f
    2fd0:	74 06                	je     2fd8 <elf_get_uninit_array+0x18>
    2fd2:	f3 c3                	repz ret 
    2fd4:	0f 1f 40 00          	nop    DWORD PTR [rax+0x0]
    2fd8:	66 83 7f 10 03       	cmp    WORD PTR [rdi+0x10],0x3
    2fdd:	75 f3                	jne    2fd2 <elf_get_uninit_array+0x12>
    2fdf:	48 8b 4f 20          	mov    rcx,QWORD PTR [rdi+0x20]
    2fe3:	48 01 f9             	add    rcx,rdi
    2fe6:	48 85 f6             	test   rsi,rsi
    2fe9:	41 0f 94 c0          	sete   r8b
    2fed:	48 85 d2             	test   rdx,rdx
    2ff0:	0f 94 c0             	sete   al
    2ff3:	41 08 c0             	or     r8b,al
    2ff6:	0f 85 97 00 00 00    	jne    3093 <elf_get_uninit_array+0xd3>
    2ffc:	48 85 c9             	test   rcx,rcx
    2fff:	0f 84 8e 00 00 00    	je     3093 <elf_get_uninit_array+0xd3>
    3005:	0f b7 47 38          	movzx  eax,WORD PTR [rdi+0x38]
    3009:	48 c7 06 00 00 00 00 	mov    QWORD PTR [rsi],0x0
    3010:	48 c7 02 00 00 00 00 	mov    QWORD PTR [rdx],0x0
    3017:	85 c0                	test   eax,eax
    3019:	74 75                	je     3090 <elf_get_uninit_array+0xd0>
    301b:	44 8d 40 ff          	lea    r8d,[rax-0x1]
    301f:	4a 8d 04 c5 00 00 00 	lea    rax,[r8*8+0x0]
    3026:	00 
    3027:	4c 29 c0             	sub    rax,r8
    302a:	4c 8d 54 c1 38       	lea    r10,[rcx+rax*8+0x38]
    302f:	eb 10                	jmp    3041 <elf_get_uninit_array+0x81>
    3031:	0f 1f 80 00 00 00 00 	nop    DWORD PTR [rax+0x0]
    3038:	48 83 c1 38          	add    rcx,0x38
    303c:	4c 39 d1             	cmp    rcx,r10
    303f:	74 4f                	je     3090 <elf_get_uninit_array+0xd0>
    3041:	83 39 02             	cmp    DWORD PTR [rcx],0x2
    3044:	75 f2                	jne    3038 <elf_get_uninit_array+0x78>
    3046:	4c 8b 49 20          	mov    r9,QWORD PTR [rcx+0x20]
    304a:	48 8b 41 18          	mov    rax,QWORD PTR [rcx+0x18]
    304e:	49 c1 e9 04          	shr    r9,0x4
    3052:	48 01 f8             	add    rax,rdi
    3055:	4d 85 c9             	test   r9,r9
    3058:	74 de                	je     3038 <elf_get_uninit_array+0x78>
    305a:	49 c1 e1 04          	shl    r9,0x4
    305e:	49 01 c1             	add    r9,rax
    3061:	eb 1b                	jmp    307e <elf_get_uninit_array+0xbe>
    3063:	0f 1f 44 00 00       	nop    DWORD PTR [rax+rax*1+0x0]
    3068:	49 83 f8 1c          	cmp    r8,0x1c
    306c:	75 07                	jne    3075 <elf_get_uninit_array+0xb5>
    306e:	4c 8b 40 08          	mov    r8,QWORD PTR [rax+0x8]
    3072:	4c 89 02             	mov    QWORD PTR [rdx],r8
    3075:	48 83 c0 10          	add    rax,0x10
    3079:	49 39 c1             	cmp    r9,rax
    307c:	74 ba                	je     3038 <elf_get_uninit_array+0x78>
    307e:	4c 8b 00             	mov    r8,QWORD PTR [rax]
    3081:	49 83 f8 1a          	cmp    r8,0x1a
    3085:	75 e1                	jne    3068 <elf_get_uninit_array+0xa8>
    3087:	4c 8b 40 08          	mov    r8,QWORD PTR [rax+0x8]
    308b:	4c 89 06             	mov    QWORD PTR [rsi],r8
    308e:	eb e5                	jmp    3075 <elf_get_uninit_array+0xb5>
    3090:	31 c0                	xor    eax,eax
    3092:	c3                   	ret    
    3093:	b8 ff ff ff ff       	mov    eax,0xffffffff
    3098:	c3                   	ret    
    3099:	0f 1f 80 00 00 00 00 	nop    DWORD PTR [rax+0x0]

00000000000030a0 <change_protection>:
    30a0:	48 85 ff             	test   rdi,rdi
    30a3:	b8 01 00 00 00       	mov    eax,0x1
    30a8:	0f 84 02 01 00 00    	je     31b0 <change_protection+0x110>
    30ae:	81 3f 7f 45 4c 46    	cmp    DWORD PTR [rdi],0x464c457f
    30b4:	74 0a                	je     30c0 <change_protection+0x20>
    30b6:	f3 c3                	repz ret 
    30b8:	0f 1f 84 00 00 00 00 	nop    DWORD PTR [rax+rax*1+0x0]
    30bf:	00 
    30c0:	66 83 7f 10 03       	cmp    WORD PTR [rdi+0x10],0x3
    30c5:	75 ef                	jne    30b6 <change_protection+0x16>
    30c7:	41 56                	push   r14
    30c9:	41 55                	push   r13
    30cb:	41 54                	push   r12
    30cd:	55                   	push   rbp
    30ce:	53                   	push   rbx
    30cf:	48 89 fb             	mov    rbx,rdi
    30d2:	48 03 5f 20          	add    rbx,QWORD PTR [rdi+0x20]
    30d6:	0f 84 cb 00 00 00    	je     31a7 <change_protection+0x107>
    30dc:	0f b7 47 38          	movzx  eax,WORD PTR [rdi+0x38]
    30e0:	49 89 fc             	mov    r12,rdi
    30e3:	85 c0                	test   eax,eax
    30e5:	0f 84 25 01 00 00    	je     3210 <change_protection+0x170>
    30eb:	83 3b 02             	cmp    DWORD PTR [rbx],0x2
    30ee:	0f 84 ab 01 00 00    	je     329f <change_protection+0x1ff>
    30f4:	8d 50 ff             	lea    edx,[rax-0x1]
    30f7:	48 8d 04 d5 00 00 00 	lea    rax,[rdx*8+0x0]
    30fe:	00 
    30ff:	48 29 d0             	sub    rax,rdx
    3102:	48 8d 54 c3 38       	lea    rdx,[rbx+rax*8+0x38]
    3107:	48 89 d8             	mov    rax,rbx
    310a:	eb 0d                	jmp    3119 <change_protection+0x79>
    310c:	0f 1f 40 00          	nop    DWORD PTR [rax+0x0]
    3110:	83 38 02             	cmp    DWORD PTR [rax],0x2
    3113:	0f 84 8f 01 00 00    	je     32a8 <change_protection+0x208>
    3119:	48 83 c0 38          	add    rax,0x38
    311d:	48 39 d0             	cmp    rax,rdx
    3120:	75 ee                	jne    3110 <change_protection+0x70>
    3122:	45 31 f6             	xor    r14d,r14d
    3125:	45 31 ed             	xor    r13d,r13d
    3128:	48 bd ff ff ff ff 02 	movabs rbp,0x2ffffffff
    312f:	00 00 00 
    3132:	eb 1b                	jmp    314f <change_protection+0xaf>
    3134:	0f 1f 40 00          	nop    DWORD PTR [rax+0x0]
    3138:	41 0f b7 44 24 38    	movzx  eax,WORD PTR [r12+0x38]
    313e:	41 83 c5 01          	add    r13d,0x1
    3142:	48 83 c3 38          	add    rbx,0x38
    3146:	44 39 e8             	cmp    eax,r13d
    3149:	0f 86 c1 00 00 00    	jbe    3210 <change_protection+0x170>
    314f:	45 85 f6             	test   r14d,r14d
    3152:	74 0c                	je     3160 <change_protection+0xc0>
    3154:	48 8b 03             	mov    rax,QWORD PTR [rbx]
    3157:	48 21 e8             	and    rax,rbp
    315a:	48 83 f8 01          	cmp    rax,0x1
    315e:	74 58                	je     31b8 <change_protection+0x118>
    3160:	81 3b 52 e5 74 64    	cmp    DWORD PTR [rbx],0x6474e552
    3166:	75 d0                	jne    3138 <change_protection+0x98>
    3168:	48 8b 43 10          	mov    rax,QWORD PTR [rbx+0x10]
    316c:	48 89 c7             	mov    rdi,rax
    316f:	48 03 43 28          	add    rax,QWORD PTR [rbx+0x28]
    3173:	48 81 e7 00 f0 ff ff 	and    rdi,0xfffffffffffff000
    317a:	4c 01 e7             	add    rdi,r12
    317d:	48 89 c6             	mov    rsi,rax
    3180:	48 81 c6 ff 0f 00 00 	add    rsi,0xfff
    3187:	48 81 e6 00 f0 ff ff 	and    rsi,0xfffffffffffff000
    318e:	4c 01 e6             	add    rsi,r12
    3191:	48 39 f7             	cmp    rdi,rsi
    3194:	74 a2                	je     3138 <change_protection+0x98>
    3196:	48 29 fe             	sub    rsi,rdi
    3199:	ba 01 00 00 00       	mov    edx,0x1
    319e:	e8 4d ee ff ff       	call   1ff0 <trts_mprotect>
    31a3:	85 c0                	test   eax,eax
    31a5:	74 91                	je     3138 <change_protection+0x98>
    31a7:	5b                   	pop    rbx
    31a8:	5d                   	pop    rbp
    31a9:	41 5c                	pop    r12
    31ab:	41 5d                	pop    r13
    31ad:	41 5e                	pop    r14
    31af:	c3                   	ret    
    31b0:	f3 c3                	repz ret 
    31b2:	66 0f 1f 44 00 00    	nop    WORD PTR [rax+rax*1+0x0]
    31b8:	48 8b 43 10          	mov    rax,QWORD PTR [rbx+0x10]
    31bc:	8b 7b 04             	mov    edi,DWORD PTR [rbx+0x4]
    31bf:	48 89 c1             	mov    rcx,rax
    31c2:	48 03 43 28          	add    rax,QWORD PTR [rbx+0x28]
    31c6:	89 fa                	mov    edx,edi
    31c8:	c1 ea 02             	shr    edx,0x2
    31cb:	48 81 e1 00 f0 ff ff 	and    rcx,0xfffffffffffff000
    31d2:	83 e2 01             	and    edx,0x1
    31d5:	48 89 c6             	mov    rsi,rax
    31d8:	48 89 d0             	mov    rax,rdx
    31db:	48 81 c6 ff 0f 00 00 	add    rsi,0xfff
    31e2:	48 83 c8 04          	or     rax,0x4
    31e6:	48 81 e6 00 f0 ff ff 	and    rsi,0xfffffffffffff000
    31ed:	83 e7 01             	and    edi,0x1
    31f0:	49 8d 3c 0c          	lea    rdi,[r12+rcx*1]
    31f4:	48 0f 45 d0          	cmovne rdx,rax
    31f8:	48 29 ce             	sub    rsi,rcx
    31fb:	e8 f0 ed ff ff       	call   1ff0 <trts_mprotect>
    3200:	85 c0                	test   eax,eax
    3202:	0f 84 58 ff ff ff    	je     3160 <change_protection+0xc0>
    3208:	eb 9d                	jmp    31a7 <change_protection+0x107>
    320a:	66 0f 1f 44 00 00    	nop    WORD PTR [rax+rax*1+0x0]
    3210:	8b 05 1a 3c 00 00    	mov    eax,DWORD PTR [rip+0x3c1a]        # 6e30 <g_global_data+0x130>
    3216:	31 c9                	xor    ecx,ecx
    3218:	48 8d 3d e1 3a 00 00 	lea    rdi,[rip+0x3ae1]        # 6d00 <g_global_data>
    321f:	85 c0                	test   eax,eax
    3221:	75 12                	jne    3235 <change_protection+0x195>
    3223:	eb 82                	jmp    31a7 <change_protection+0x107>
    3225:	0f 1f 00             	nop    DWORD PTR [rax]
    3228:	8b 05 02 3c 00 00    	mov    eax,DWORD PTR [rip+0x3c02]        # 6e30 <g_global_data+0x130>
    322e:	83 c1 01             	add    ecx,0x1
    3231:	39 c8                	cmp    eax,ecx
    3233:	76 63                	jbe    3298 <change_protection+0x1f8>
    3235:	89 c8                	mov    eax,ecx
    3237:	48 89 c2             	mov    rdx,rax
    323a:	48 c1 e2 05          	shl    rdx,0x5
    323e:	48 01 fa             	add    rdx,rdi
    3241:	0f b7 b2 38 01 00 00 	movzx  esi,WORD PTR [rdx+0x138]
    3248:	66 83 fe 14          	cmp    si,0x14
    324c:	75 da                	jne    3228 <change_protection+0x188>
    324e:	48 83 c0 0a          	add    rax,0xa
    3252:	48 c1 e0 05          	shl    rax,0x5
    3256:	48 01 f8             	add    rax,rdi
    3259:	48 8b 40 10          	mov    rax,QWORD PTR [rax+0x10]
    325d:	48 3d 07 02 00 00    	cmp    rax,0x207
    3263:	75 c3                	jne    3228 <change_protection+0x188>
    3265:	8b 82 3c 01 00 00    	mov    eax,DWORD PTR [rdx+0x13c]
    326b:	85 c0                	test   eax,eax
    326d:	74 b9                	je     3228 <change_protection+0x188>
    326f:	8b b2 3c 01 00 00    	mov    esi,DWORD PTR [rdx+0x13c]
    3275:	48 8b ba 40 01 00 00 	mov    rdi,QWORD PTR [rdx+0x140]
    327c:	ba 03 00 00 00       	mov    edx,0x3
    3281:	5b                   	pop    rbx
    3282:	5d                   	pop    rbp
    3283:	4c 01 e7             	add    rdi,r12
    3286:	c1 e6 0c             	shl    esi,0xc
    3289:	41 5c                	pop    r12
    328b:	41 5d                	pop    r13
    328d:	41 5e                	pop    r14
    328f:	e9 5c ed ff ff       	jmp    1ff0 <trts_mprotect>
    3294:	0f 1f 40 00          	nop    DWORD PTR [rax+0x0]
    3298:	31 c0                	xor    eax,eax
    329a:	e9 08 ff ff ff       	jmp    31a7 <change_protection+0x107>
    329f:	48 89 d8             	mov    rax,rbx
    32a2:	66 0f 1f 44 00 00    	nop    WORD PTR [rax+rax*1+0x0]
    32a8:	48 8b 48 20          	mov    rcx,QWORD PTR [rax+0x20]
    32ac:	48 8b 70 18          	mov    rsi,QWORD PTR [rax+0x18]
    32b0:	48 c1 e9 04          	shr    rcx,0x4
    32b4:	4c 01 e6             	add    rsi,r12
    32b7:	48 85 c9             	test   rcx,rcx
    32ba:	48 89 f0             	mov    rax,rsi
    32bd:	0f 84 5f fe ff ff    	je     3122 <change_protection+0x82>
    32c3:	48 8b 16             	mov    rdx,QWORD PTR [rsi]
    32c6:	48 85 d2             	test   rdx,rdx
    32c9:	0f 84 53 fe ff ff    	je     3122 <change_protection+0x82>
    32cf:	48 83 fa 16          	cmp    rdx,0x16
    32d3:	74 2b                	je     3300 <change_protection+0x260>
    32d5:	48 c1 e1 04          	shl    rcx,0x4
    32d9:	48 01 f1             	add    rcx,rsi
    32dc:	eb 14                	jmp    32f2 <change_protection+0x252>
    32de:	66 90                	xchg   ax,ax
    32e0:	48 8b 10             	mov    rdx,QWORD PTR [rax]
    32e3:	48 85 d2             	test   rdx,rdx
    32e6:	0f 84 36 fe ff ff    	je     3122 <change_protection+0x82>
    32ec:	48 83 fa 16          	cmp    rdx,0x16
    32f0:	74 0e                	je     3300 <change_protection+0x260>
    32f2:	48 83 c0 10          	add    rax,0x10
    32f6:	48 39 c8             	cmp    rax,rcx
    32f9:	75 e5                	jne    32e0 <change_protection+0x240>
    32fb:	e9 22 fe ff ff       	jmp    3122 <change_protection+0x82>
    3300:	41 be 01 00 00 00    	mov    r14d,0x1
    3306:	e9 1a fe ff ff       	jmp    3125 <change_protection+0x85>
    330b:	0f 1f 44 00 00       	nop    DWORD PTR [rax+rax*1+0x0]

0000000000003310 <init_global_object>:
    3310:	55                   	push   rbp
    3311:	53                   	push   rbx
    3312:	48 8d 3d e7 cc ff ff 	lea    rdi,[rip+0xffffffffffffcce7]        # 0 <enclave.so>
    3319:	48 83 ec 28          	sub    rsp,0x28
    331d:	48 8d 54 24 10       	lea    rdx,[rsp+0x10]
    3322:	48 8d 74 24 08       	lea    rsi,[rsp+0x8]
    3327:	48 c7 44 24 08 00 00 	mov    QWORD PTR [rsp+0x8],0x0
    332e:	00 00 
    3330:	64 48 8b 04 25 28 00 	mov    rax,QWORD PTR fs:0x28
    3337:	00 00 
    3339:	48 89 44 24 18       	mov    QWORD PTR [rsp+0x18],rax
    333e:	31 c0                	xor    eax,eax
    3340:	48 c7 44 24 10 00 00 	mov    QWORD PTR [rsp+0x10],0x0
    3347:	00 00 
    3349:	e8 92 fb ff ff       	call   2ee0 <elf_get_init_array>
    334e:	85 c0                	test   eax,eax
    3350:	75 0a                	jne    335c <init_global_object+0x4c>
    3352:	48 8b 5c 24 08       	mov    rbx,QWORD PTR [rsp+0x8]
    3357:	48 85 db             	test   rbx,rbx
    335a:	75 1c                	jne    3378 <init_global_object+0x68>
    335c:	48 8b 44 24 18       	mov    rax,QWORD PTR [rsp+0x18]
    3361:	64 48 33 04 25 28 00 	xor    rax,QWORD PTR fs:0x28
    3368:	00 00 
    336a:	75 41                	jne    33ad <init_global_object+0x9d>
    336c:	48 83 c4 28          	add    rsp,0x28
    3370:	5b                   	pop    rbx
    3371:	5d                   	pop    rbp
    3372:	c3                   	ret    
    3373:	0f 1f 44 00 00       	nop    DWORD PTR [rax+rax*1+0x0]
    3378:	48 8b 6c 24 10       	mov    rbp,QWORD PTR [rsp+0x10]
    337d:	48 85 ed             	test   rbp,rbp
    3380:	74 da                	je     335c <init_global_object+0x4c>
    3382:	48 8d 05 77 cc ff ff 	lea    rax,[rip+0xffffffffffffcc77]        # 0 <enclave.so>
    3389:	48 83 e5 f8          	and    rbp,0xfffffffffffffff8
    338d:	48 01 c3             	add    rbx,rax
    3390:	48 01 dd             	add    rbp,rbx
    3393:	48 39 eb             	cmp    rbx,rbp
    3396:	73 c4                	jae    335c <init_global_object+0x4c>
    3398:	0f 1f 84 00 00 00 00 	nop    DWORD PTR [rax+rax*1+0x0]
    339f:	00 
    33a0:	ff 13                	call   QWORD PTR [rbx]
    33a2:	48 83 c3 08          	add    rbx,0x8
    33a6:	48 39 dd             	cmp    rbp,rbx
    33a9:	77 f5                	ja     33a0 <init_global_object+0x90>
    33ab:	eb af                	jmp    335c <init_global_object+0x4c>
    33ad:	e8 ee 00 00 00       	call   34a0 <__stack_chk_fail>
    33b2:	66 2e 0f 1f 84 00 00 	nop    WORD PTR cs:[rax+rax*1+0x0]
    33b9:	00 00 00 
    33bc:	0f 1f 40 00          	nop    DWORD PTR [rax+0x0]

00000000000033c0 <uninit_global_object>:
    33c0:	55                   	push   rbp
    33c1:	53                   	push   rbx
    33c2:	48 83 ec 28          	sub    rsp,0x28
    33c6:	48 8b 1d 2b 5d 20 00 	mov    rbx,QWORD PTR [rip+0x205d2b]        # 2090f8 <g_exit_function>
    33cd:	48 c7 05 20 5d 20 00 	mov    QWORD PTR [rip+0x205d20],0x0        # 2090f8 <g_exit_function>
    33d4:	00 00 00 00 
    33d8:	64 48 8b 04 25 28 00 	mov    rax,QWORD PTR fs:0x28
    33df:	00 00 
    33e1:	48 89 44 24 18       	mov    QWORD PTR [rsp+0x18],rax
    33e6:	31 c0                	xor    eax,eax
    33e8:	48 85 db             	test   rbx,rbx
    33eb:	74 2a                	je     3417 <uninit_global_object+0x57>
    33ed:	0f 1f 00             	nop    DWORD PTR [rax]
    33f0:	48 8b 05 f9 5c 20 00 	mov    rax,QWORD PTR [rip+0x205cf9]        # 2090f0 <g_exit_function_cookie>
    33f7:	48 8b 7b 08          	mov    rdi,QWORD PTR [rbx+0x8]
    33fb:	48 31 c7             	xor    rdi,rax
    33fe:	48 33 03             	xor    rax,QWORD PTR [rbx]
    3401:	ff d0                	call   rax
    3403:	48 8b 6b 18          	mov    rbp,QWORD PTR [rbx+0x18]
    3407:	48 89 df             	mov    rdi,rbx
    340a:	e8 b1 1b 00 00       	call   4fc0 <dlfree>
    340f:	48 85 ed             	test   rbp,rbp
    3412:	48 89 eb             	mov    rbx,rbp
    3415:	75 d9                	jne    33f0 <uninit_global_object+0x30>
    3417:	48 8d 54 24 10       	lea    rdx,[rsp+0x10]
    341c:	48 8d 74 24 08       	lea    rsi,[rsp+0x8]
    3421:	48 8d 3d d8 cb ff ff 	lea    rdi,[rip+0xffffffffffffcbd8]        # 0 <enclave.so>
    3428:	e8 93 fb ff ff       	call   2fc0 <elf_get_uninit_array>
    342d:	48 8b 44 24 08       	mov    rax,QWORD PTR [rsp+0x8]
    3432:	48 85 c0             	test   rax,rax
    3435:	74 47                	je     347e <uninit_global_object+0xbe>
    3437:	48 8b 4c 24 10       	mov    rcx,QWORD PTR [rsp+0x10]
    343c:	48 85 c9             	test   rcx,rcx
    343f:	74 3d                	je     347e <uninit_global_object+0xbe>
    3441:	48 8d 15 b8 cb ff ff 	lea    rdx,[rip+0xffffffffffffcbb8]        # 0 <enclave.so>
    3448:	48 83 e1 f8          	and    rcx,0xfffffffffffffff8
    344c:	48 01 c2             	add    rdx,rax
    344f:	48 8d 44 0a f8       	lea    rax,[rdx+rcx*1-0x8]
    3454:	48 39 c2             	cmp    rdx,rax
    3457:	77 25                	ja     347e <uninit_global_object+0xbe>
    3459:	48 89 c5             	mov    rbp,rax
    345c:	48 8d 58 f8          	lea    rbx,[rax-0x8]
    3460:	48 29 d5             	sub    rbp,rdx
    3463:	48 f7 d5             	not    rbp
    3466:	48 83 e5 f8          	and    rbp,0xfffffffffffffff8
    346a:	48 01 c5             	add    rbp,rax
    346d:	eb 05                	jmp    3474 <uninit_global_object+0xb4>
    346f:	90                   	nop
    3470:	48 83 eb 08          	sub    rbx,0x8
    3474:	ff 10                	call   QWORD PTR [rax]
    3476:	48 39 eb             	cmp    rbx,rbp
    3479:	48 89 d8             	mov    rax,rbx
    347c:	75 f2                	jne    3470 <uninit_global_object+0xb0>
    347e:	48 8b 44 24 18       	mov    rax,QWORD PTR [rsp+0x18]
    3483:	64 48 33 04 25 28 00 	xor    rax,QWORD PTR fs:0x28
    348a:	00 00 
    348c:	75 07                	jne    3495 <uninit_global_object+0xd5>
    348e:	48 83 c4 28          	add    rsp,0x28
    3492:	5b                   	pop    rbx
    3493:	5d                   	pop    rbp
    3494:	c3                   	ret    
    3495:	e8 06 00 00 00       	call   34a0 <__stack_chk_fail>
    349a:	66 0f 1f 44 00 00    	nop    WORD PTR [rax+rax*1+0x0]

00000000000034a0 <__stack_chk_fail>:
    34a0:	48 83 ec 08          	sub    rsp,0x8
    34a4:	e8 00 37 00 00       	call   6ba9 <abort>
    34a9:	0f 1f 80 00 00 00 00 	nop    DWORD PTR [rax+0x0]

00000000000034b0 <init_mparams>:
    34b0:	48 83 ec 18          	sub    rsp,0x18
    34b4:	64 48 8b 04 25 28 00 	mov    rax,QWORD PTR fs:0x28
    34bb:	00 00 
    34bd:	48 89 44 24 08       	mov    QWORD PTR [rsp+0x8],rax
    34c2:	31 c0                	xor    eax,eax
    34c4:	b8 01 00 00 00       	mov    eax,0x1
    34c9:	87 05 21 60 20 00    	xchg   DWORD PTR [rip+0x206021],eax        # 2094f0 <malloc_global_mutex>
    34cf:	85 c0                	test   eax,eax
    34d1:	74 1f                	je     34f2 <init_mparams+0x42>
    34d3:	48 8d 15 16 60 20 00 	lea    rdx,[rip+0x206016]        # 2094f0 <malloc_global_mutex>
    34da:	b9 01 00 00 00       	mov    ecx,0x1
    34df:	90                   	nop
    34e0:	8b 02                	mov    eax,DWORD PTR [rdx]
    34e2:	85 c0                	test   eax,eax
    34e4:	75 fa                	jne    34e0 <init_mparams+0x30>
    34e6:	89 c8                	mov    eax,ecx
    34e8:	87 05 02 60 20 00    	xchg   DWORD PTR [rip+0x206002],eax        # 2094f0 <malloc_global_mutex>
    34ee:	85 c0                	test   eax,eax
    34f0:	75 ee                	jne    34e0 <init_mparams+0x30>
    34f2:	48 83 3d c6 5f 20 00 	cmp    QWORD PTR [rip+0x205fc6],0x0        # 2094c0 <mparams>
    34f9:	00 
    34fa:	75 6b                	jne    3567 <init_mparams+0xb7>
    34fc:	48 89 e7             	mov    rdi,rsp
    34ff:	be 08 00 00 00       	mov    esi,0x8
    3504:	48 c7 05 c1 5f 20 00 	mov    QWORD PTR [rip+0x205fc1],0x1000        # 2094d0 <mparams+0x10>
    350b:	00 10 00 00 
    350f:	48 c7 05 ae 5f 20 00 	mov    QWORD PTR [rip+0x205fae],0x1000        # 2094c8 <mparams+0x8>
    3516:	00 10 00 00 
    351a:	48 c7 05 b3 5f 20 00 	mov    QWORD PTR [rip+0x205fb3],0xffffffffffffffff        # 2094d8 <mparams+0x18>
    3521:	ff ff ff ff 
    3525:	48 c7 05 b0 5f 20 00 	mov    QWORD PTR [rip+0x205fb0],0x200000        # 2094e0 <mparams+0x20>
    352c:	00 00 20 00 
    3530:	c7 05 ae 5f 20 00 02 	mov    DWORD PTR [rip+0x205fae],0x2        # 2094e8 <mparams+0x28>
    3537:	00 00 00 
    353a:	48 c7 05 2b 5f 20 00 	mov    QWORD PTR [rip+0x205f2b],0x2        # 209470 <_gm_+0x370>
    3541:	02 00 00 00 
    3545:	e8 46 d4 ff ff       	call   990 <sgx_read_rand>
    354a:	85 c0                	test   eax,eax
    354c:	75 3d                	jne    358b <init_mparams+0xdb>
    354e:	48 8b 04 24          	mov    rax,QWORD PTR [rsp]
    3552:	48 35 55 55 55 55    	xor    rax,0x55555555
    3558:	48 83 e0 f8          	and    rax,0xfffffffffffffff8
    355c:	48 83 c8 08          	or     rax,0x8
    3560:	48 89 05 59 5f 20 00 	mov    QWORD PTR [rip+0x205f59],rax        # 2094c0 <mparams>
    3567:	c7 05 7f 5f 20 00 00 	mov    DWORD PTR [rip+0x205f7f],0x0        # 2094f0 <malloc_global_mutex>
    356e:	00 00 00 
    3571:	b8 01 00 00 00       	mov    eax,0x1
    3576:	48 8b 74 24 08       	mov    rsi,QWORD PTR [rsp+0x8]
    357b:	64 48 33 34 25 28 00 	xor    rsi,QWORD PTR fs:0x28
    3582:	00 00 
    3584:	75 0a                	jne    3590 <init_mparams+0xe0>
    3586:	48 83 c4 18          	add    rsp,0x18
    358a:	c3                   	ret    
    358b:	e8 19 36 00 00       	call   6ba9 <abort>
    3590:	e8 0b ff ff ff       	call   34a0 <__stack_chk_fail>
    3595:	66 2e 0f 1f 84 00 00 	nop    WORD PTR cs:[rax+rax*1+0x0]
    359c:	00 00 00 
    359f:	90                   	nop

00000000000035a0 <dlmalloc>:
    35a0:	41 57                	push   r15
    35a2:	41 56                	push   r14
    35a4:	41 55                	push   r13
    35a6:	41 54                	push   r12
    35a8:	49 89 fc             	mov    r12,rdi
    35ab:	55                   	push   rbp
    35ac:	53                   	push   rbx
    35ad:	48 83 ec 18          	sub    rsp,0x18
    35b1:	48 83 3d 07 5f 20 00 	cmp    QWORD PTR [rip+0x205f07],0x0        # 2094c0 <mparams>
    35b8:	00 
    35b9:	0f 84 41 02 00 00    	je     3800 <dlmalloc+0x260>
    35bf:	f6 05 aa 5e 20 00 02 	test   BYTE PTR [rip+0x205eaa],0x2        # 209470 <_gm_+0x370>
    35c6:	0f 85 fc 01 00 00    	jne    37c8 <dlmalloc+0x228>
    35cc:	49 81 fc e0 00 00 00 	cmp    r12,0xe0
    35d3:	0f 87 f7 00 00 00    	ja     36d0 <dlmalloc+0x130>
    35d9:	49 83 fc 0e          	cmp    r12,0xe
    35dd:	0f 87 cd 01 00 00    	ja     37b0 <dlmalloc+0x210>
    35e3:	b9 04 00 00 00       	mov    ecx,0x4
    35e8:	bd 20 00 00 00       	mov    ebp,0x20
    35ed:	8b 15 0d 5b 20 00    	mov    edx,DWORD PTR [rip+0x205b0d]        # 209100 <_gm_>
    35f3:	4c 8d 2d 06 5b 20 00 	lea    r13,[rip+0x205b06]        # 209100 <_gm_>
    35fa:	89 d0                	mov    eax,edx
    35fc:	d3 e8                	shr    eax,cl
    35fe:	a8 03                	test   al,0x3
    3600:	0f 84 0a 02 00 00    	je     3810 <dlmalloc+0x270>
    3606:	f7 d0                	not    eax
    3608:	83 e0 01             	and    eax,0x1
    360b:	01 c1                	add    ecx,eax
    360d:	8d 04 09             	lea    eax,[rcx+rcx*1]
    3610:	49 8d 74 c5 48       	lea    rsi,[r13+rax*8+0x48]
    3615:	48 8b 5e 10          	mov    rbx,QWORD PTR [rsi+0x10]
    3619:	48 8b 43 10          	mov    rax,QWORD PTR [rbx+0x10]
    361d:	48 39 c6             	cmp    rsi,rax
    3620:	0f 84 8a 06 00 00    	je     3cb0 <dlmalloc+0x710>
    3626:	48 39 05 eb 5a 20 00 	cmp    QWORD PTR [rip+0x205aeb],rax        # 209118 <_gm_+0x18>
    362d:	0f 87 ad 06 00 00    	ja     3ce0 <dlmalloc+0x740>
    3633:	48 39 58 18          	cmp    QWORD PTR [rax+0x18],rbx
    3637:	0f 85 a3 06 00 00    	jne    3ce0 <dlmalloc+0x740>
    363d:	48 89 70 18          	mov    QWORD PTR [rax+0x18],rsi
    3641:	48 89 46 10          	mov    QWORD PTR [rsi+0x10],rax
    3645:	c1 e1 03             	shl    ecx,0x3
    3648:	4c 33 2d 71 5e 20 00 	xor    r13,QWORD PTR [rip+0x205e71]        # 2094c0 <mparams>
    364f:	89 c8                	mov    eax,ecx
    3651:	83 c8 03             	or     eax,0x3
    3654:	48 89 43 08          	mov    QWORD PTR [rbx+0x8],rax
    3658:	48 8d 04 0b          	lea    rax,[rbx+rcx*1]
    365c:	48 83 c3 10          	add    rbx,0x10
    3660:	48 83 48 08 01       	or     QWORD PTR [rax+0x8],0x1
    3665:	48 85 db             	test   rbx,rbx
    3668:	4c 89 28             	mov    QWORD PTR [rax],r13
    366b:	0f 84 37 01 00 00    	je     37a8 <dlmalloc+0x208>
    3671:	e8 9a ec ff ff       	call   2310 <get_heap_base>
    3676:	48 39 d8             	cmp    rax,rbx
    3679:	0f 87 61 06 00 00    	ja     3ce0 <dlmalloc+0x740>
    367f:	48 89 d8             	mov    rax,rbx
    3682:	48 f7 d0             	not    rax
    3685:	4c 39 e0             	cmp    rax,r12
    3688:	0f 82 52 06 00 00    	jb     3ce0 <dlmalloc+0x740>
    368e:	31 ff                	xor    edi,edi
    3690:	49 01 dc             	add    r12,rbx
    3693:	e8 98 24 00 00       	call   5b30 <sbrk>
    3698:	4c 39 e0             	cmp    rax,r12
    369b:	0f 82 3f 06 00 00    	jb     3ce0 <dlmalloc+0x740>
    36a1:	f6 05 c8 5d 20 00 02 	test   BYTE PTR [rip+0x205dc8],0x2        # 209470 <_gm_+0x370>
    36a8:	74 0a                	je     36b4 <dlmalloc+0x114>
    36aa:	c7 05 c0 5d 20 00 00 	mov    DWORD PTR [rip+0x205dc0],0x0        # 209474 <_gm_+0x374>
    36b1:	00 00 00 
    36b4:	48 83 c4 18          	add    rsp,0x18
    36b8:	48 89 d8             	mov    rax,rbx
    36bb:	5b                   	pop    rbx
    36bc:	5d                   	pop    rbp
    36bd:	41 5c                	pop    r12
    36bf:	41 5d                	pop    r13
    36c1:	41 5e                	pop    r14
    36c3:	41 5f                	pop    r15
    36c5:	c3                   	ret    
    36c6:	66 2e 0f 1f 84 00 00 	nop    WORD PTR cs:[rax+rax*1+0x0]
    36cd:	00 00 00 
    36d0:	48 8b 35 31 5a 20 00 	mov    rsi,QWORD PTR [rip+0x205a31]        # 209108 <_gm_+0x8>
    36d7:	49 81 fc 7f ff ff ff 	cmp    r12,0xffffffffffffff7f
    36de:	4c 8d 2d 1b 5a 20 00 	lea    r13,[rip+0x205a1b]        # 209100 <_gm_>
    36e5:	48 89 f7             	mov    rdi,rsi
    36e8:	76 46                	jbe    3730 <dlmalloc+0x190>
    36ea:	48 83 fe ff          	cmp    rsi,0xffffffffffffffff
    36ee:	48 8b 05 cb 5d 20 00 	mov    rax,QWORD PTR [rip+0x205dcb]        # 2094c0 <mparams>
    36f5:	0f 85 35 02 00 00    	jne    3930 <dlmalloc+0x390>
    36fb:	48 8b 1d 1e 5a 20 00 	mov    rbx,QWORD PTR [rip+0x205a1e]        # 209120 <_gm_+0x20>
    3702:	48 8d 14 33          	lea    rdx,[rbx+rsi*1]
    3706:	49 31 c5             	xor    r13,rax
    3709:	48 c7 05 f4 59 20 00 	mov    QWORD PTR [rip+0x2059f4],0x0        # 209108 <_gm_+0x8>
    3710:	00 00 00 00 
    3714:	48 c7 05 01 5a 20 00 	mov    QWORD PTR [rip+0x205a01],0x0        # 209120 <_gm_+0x20>
    371b:	00 00 00 00 
    371f:	48 89 73 08          	mov    QWORD PTR [rbx+0x8],rsi
    3723:	4c 89 2a             	mov    QWORD PTR [rdx],r13
    3726:	48 83 4a 08 01       	or     QWORD PTR [rdx+0x8],0x1
    372b:	eb 6e                	jmp    379b <dlmalloc+0x1fb>
    372d:	0f 1f 00             	nop    DWORD PTR [rax]
    3730:	44 8b 05 cd 59 20 00 	mov    r8d,DWORD PTR [rip+0x2059cd]        # 209104 <_gm_+0x4>
    3737:	49 8d 6c 24 1f       	lea    rbp,[r12+0x1f]
    373c:	48 83 e5 f0          	and    rbp,0xfffffffffffffff0
    3740:	45 85 c0             	test   r8d,r8d
    3743:	0f 85 47 03 00 00    	jne    3a90 <dlmalloc+0x4f0>
    3749:	48 39 fd             	cmp    rbp,rdi
    374c:	0f 86 7e 01 00 00    	jbe    38d0 <dlmalloc+0x330>
    3752:	48 8b 05 b7 59 20 00 	mov    rax,QWORD PTR [rip+0x2059b7]        # 209110 <_gm_+0x10>
    3759:	48 8b 15 60 5d 20 00 	mov    rdx,QWORD PTR [rip+0x205d60]        # 2094c0 <mparams>
    3760:	48 39 e8             	cmp    rax,rbp
    3763:	0f 86 6e 17 00 00    	jbe    4ed7 <dlmalloc+0x1937>
    3769:	48 8b 1d b8 59 20 00 	mov    rbx,QWORD PTR [rip+0x2059b8]        # 209128 <_gm_+0x28>
    3770:	48 29 e8             	sub    rax,rbp
    3773:	49 31 d5             	xor    r13,rdx
    3776:	48 89 05 93 59 20 00 	mov    QWORD PTR [rip+0x205993],rax        # 209110 <_gm_+0x10>
    377d:	48 83 c8 01          	or     rax,0x1
    3781:	48 8d 0c 2b          	lea    rcx,[rbx+rbp*1]
    3785:	48 83 cd 03          	or     rbp,0x3
    3789:	48 89 0d 98 59 20 00 	mov    QWORD PTR [rip+0x205998],rcx        # 209128 <_gm_+0x28>
    3790:	48 89 41 08          	mov    QWORD PTR [rcx+0x8],rax
    3794:	48 89 6b 08          	mov    QWORD PTR [rbx+0x8],rbp
    3798:	4c 89 29             	mov    QWORD PTR [rcx],r13
    379b:	48 83 c3 10          	add    rbx,0x10
    379f:	48 85 db             	test   rbx,rbx
    37a2:	0f 85 c9 fe ff ff    	jne    3671 <dlmalloc+0xd1>
    37a8:	31 db                	xor    ebx,ebx
    37aa:	e9 f2 fe ff ff       	jmp    36a1 <dlmalloc+0x101>
    37af:	90                   	nop
    37b0:	49 8d 6c 24 1f       	lea    rbp,[r12+0x1f]
    37b5:	48 83 e5 f0          	and    rbp,0xfffffffffffffff0
    37b9:	48 89 e9             	mov    rcx,rbp
    37bc:	48 c1 e9 03          	shr    rcx,0x3
    37c0:	e9 28 fe ff ff       	jmp    35ed <dlmalloc+0x4d>
    37c5:	0f 1f 00             	nop    DWORD PTR [rax]
    37c8:	b8 01 00 00 00       	mov    eax,0x1
    37cd:	87 05 a1 5c 20 00    	xchg   DWORD PTR [rip+0x205ca1],eax        # 209474 <_gm_+0x374>
    37d3:	85 c0                	test   eax,eax
    37d5:	0f 84 f1 fd ff ff    	je     35cc <dlmalloc+0x2c>
    37db:	ba 01 00 00 00       	mov    edx,0x1
    37e0:	8b 05 8e 5c 20 00    	mov    eax,DWORD PTR [rip+0x205c8e]        # 209474 <_gm_+0x374>
    37e6:	85 c0                	test   eax,eax
    37e8:	75 f6                	jne    37e0 <dlmalloc+0x240>
    37ea:	89 d0                	mov    eax,edx
    37ec:	87 05 82 5c 20 00    	xchg   DWORD PTR [rip+0x205c82],eax        # 209474 <_gm_+0x374>
    37f2:	85 c0                	test   eax,eax
    37f4:	75 ea                	jne    37e0 <dlmalloc+0x240>
    37f6:	e9 d1 fd ff ff       	jmp    35cc <dlmalloc+0x2c>
    37fb:	0f 1f 44 00 00       	nop    DWORD PTR [rax+rax*1+0x0]
    3800:	e8 ab fc ff ff       	call   34b0 <init_mparams>
    3805:	e9 b5 fd ff ff       	jmp    35bf <dlmalloc+0x1f>
    380a:	66 0f 1f 44 00 00    	nop    WORD PTR [rax+rax*1+0x0]
    3810:	48 8b 35 f1 58 20 00 	mov    rsi,QWORD PTR [rip+0x2058f1]        # 209108 <_gm_+0x8>
    3817:	48 39 ee             	cmp    rsi,rbp
    381a:	48 89 f7             	mov    rdi,rsi
    381d:	0f 83 ad 00 00 00    	jae    38d0 <dlmalloc+0x330>
    3823:	85 c0                	test   eax,eax
    3825:	0f 84 ba 04 00 00    	je     3ce5 <dlmalloc+0x745>
    382b:	bf 01 00 00 00       	mov    edi,0x1
    3830:	d3 e0                	shl    eax,cl
    3832:	41 89 f8             	mov    r8d,edi
    3835:	41 d3 e0             	shl    r8d,cl
    3838:	47 8d 0c 00          	lea    r9d,[r8+r8*1]
    383c:	45 89 c8             	mov    r8d,r9d
    383f:	41 f7 d8             	neg    r8d
    3842:	45 09 c8             	or     r8d,r9d
    3845:	44 21 c0             	and    eax,r8d
    3848:	89 c1                	mov    ecx,eax
    384a:	f7 d9                	neg    ecx
    384c:	21 c8                	and    eax,ecx
    384e:	31 c9                	xor    ecx,ecx
    3850:	f3 0f bc c8          	tzcnt  ecx,eax
    3854:	8d 04 09             	lea    eax,[rcx+rcx*1]
    3857:	4d 8d 44 c5 48       	lea    r8,[r13+rax*8+0x48]
    385c:	49 8b 58 10          	mov    rbx,QWORD PTR [r8+0x10]
    3860:	48 8b 43 10          	mov    rax,QWORD PTR [rbx+0x10]
    3864:	49 39 c0             	cmp    r8,rax
    3867:	0f 84 74 06 00 00    	je     3ee1 <dlmalloc+0x941>
    386d:	48 39 05 a4 58 20 00 	cmp    QWORD PTR [rip+0x2058a4],rax        # 209118 <_gm_+0x18>
    3874:	0f 87 66 04 00 00    	ja     3ce0 <dlmalloc+0x740>
    387a:	48 39 58 18          	cmp    QWORD PTR [rax+0x18],rbx
    387e:	0f 85 5c 04 00 00    	jne    3ce0 <dlmalloc+0x740>
    3884:	4c 89 40 18          	mov    QWORD PTR [rax+0x18],r8
    3888:	49 89 40 10          	mov    QWORD PTR [r8+0x10],rax
    388c:	8d 04 cd 00 00 00 00 	lea    eax,[rcx*8+0x0]
    3893:	48 8b 3d 26 5c 20 00 	mov    rdi,QWORD PTR [rip+0x205c26]        # 2094c0 <mparams>
    389a:	48 89 c2             	mov    rdx,rax
    389d:	48 89 c1             	mov    rcx,rax
    38a0:	48 01 d8             	add    rax,rbx
    38a3:	48 29 ea             	sub    rdx,rbp
    38a6:	4c 31 ef             	xor    rdi,r13
    38a9:	48 83 fa 1f          	cmp    rdx,0x1f
    38ad:	0f 87 7b 0b 00 00    	ja     442e <dlmalloc+0xe8e>
    38b3:	83 c9 03             	or     ecx,0x3
    38b6:	89 ce                	mov    esi,ecx
    38b8:	48 89 73 08          	mov    QWORD PTR [rbx+0x8],rsi
    38bc:	48 89 38             	mov    QWORD PTR [rax],rdi
    38bf:	48 83 48 08 01       	or     QWORD PTR [rax+0x8],0x1
    38c4:	e9 d2 fe ff ff       	jmp    379b <dlmalloc+0x1fb>
    38c9:	0f 1f 80 00 00 00 00 	nop    DWORD PTR [rax+0x0]
    38d0:	48 8b 05 e9 5b 20 00 	mov    rax,QWORD PTR [rip+0x205be9]        # 2094c0 <mparams>
    38d7:	48 89 f9             	mov    rcx,rdi
    38da:	48 8b 1d 3f 58 20 00 	mov    rbx,QWORD PTR [rip+0x20583f]        # 209120 <_gm_+0x20>
    38e1:	48 29 e9             	sub    rcx,rbp
    38e4:	4c 89 ee             	mov    rsi,r13
    38e7:	48 31 c6             	xor    rsi,rax
    38ea:	48 83 f9 1f          	cmp    rcx,0x1f
    38ee:	48 8d 14 3b          	lea    rdx,[rbx+rdi*1]
    38f2:	0f 86 d3 15 00 00    	jbe    4ecb <dlmalloc+0x192b>
    38f8:	48 8d 04 2b          	lea    rax,[rbx+rbp*1]
    38fc:	48 89 cf             	mov    rdi,rcx
    38ff:	48 83 cd 03          	or     rbp,0x3
    3903:	48 83 cf 01          	or     rdi,0x1
    3907:	48 89 0d fa 57 20 00 	mov    QWORD PTR [rip+0x2057fa],rcx        # 209108 <_gm_+0x8>
    390e:	48 89 05 0b 58 20 00 	mov    QWORD PTR [rip+0x20580b],rax        # 209120 <_gm_+0x20>
    3915:	48 89 78 08          	mov    QWORD PTR [rax+0x8],rdi
    3919:	48 89 0a             	mov    QWORD PTR [rdx],rcx
    391c:	48 89 6b 08          	mov    QWORD PTR [rbx+0x8],rbp
    3920:	48 89 30             	mov    QWORD PTR [rax],rsi
    3923:	e9 73 fe ff ff       	jmp    379b <dlmalloc+0x1fb>
    3928:	0f 1f 84 00 00 00 00 	nop    DWORD PTR [rax+rax*1+0x0]
    392f:	00 
    3930:	48 85 c0             	test   rax,rax
    3933:	48 c7 c5 ff ff ff ff 	mov    rbp,0xffffffffffffffff
    393a:	0f 85 68 fe ff ff    	jne    37a8 <dlmalloc+0x208>
    3940:	e8 6b fb ff ff       	call   34b0 <init_mparams>
    3945:	48 8b 05 84 5b 20 00 	mov    rax,QWORD PTR [rip+0x205b84]        # 2094d0 <mparams+0x10>
    394c:	48 8d 4c 05 5f       	lea    rcx,[rbp+rax*1+0x5f]
    3951:	48 f7 d8             	neg    rax
    3954:	48 21 c1             	and    rcx,rax
    3957:	48 39 e9             	cmp    rcx,rbp
    395a:	0f 86 48 fe ff ff    	jbe    37a8 <dlmalloc+0x208>
    3960:	48 8b 05 01 5b 20 00 	mov    rax,QWORD PTR [rip+0x205b01]        # 209468 <_gm_+0x368>
    3967:	48 85 c0             	test   rax,rax
    396a:	74 1d                	je     3989 <dlmalloc+0x3e9>
    396c:	48 8b 35 e5 5a 20 00 	mov    rsi,QWORD PTR [rip+0x205ae5]        # 209458 <_gm_+0x358>
    3973:	48 8d 14 31          	lea    rdx,[rcx+rsi*1]
    3977:	48 39 d0             	cmp    rax,rdx
    397a:	0f 82 28 fe ff ff    	jb     37a8 <dlmalloc+0x208>
    3980:	48 39 d6             	cmp    rsi,rdx
    3983:	0f 83 1f fe ff ff    	jae    37a8 <dlmalloc+0x208>
    3989:	f6 05 e0 5a 20 00 04 	test   BYTE PTR [rip+0x205ae0],0x4        # 209470 <_gm_+0x370>
    3990:	0f 85 cc 00 00 00    	jne    3a62 <dlmalloc+0x4c2>
    3996:	48 8b 15 8b 57 20 00 	mov    rdx,QWORD PTR [rip+0x20578b]        # 209128 <_gm_+0x28>
    399d:	48 85 d2             	test   rdx,rdx
    39a0:	74 2c                	je     39ce <dlmalloc+0x42e>
    39a2:	4c 8d 35 cf 5a 20 00 	lea    r14,[rip+0x205acf]        # 209478 <_gm_+0x378>
    39a9:	0f 1f 80 00 00 00 00 	nop    DWORD PTR [rax+0x0]
    39b0:	49 8b 06             	mov    rax,QWORD PTR [r14]
    39b3:	48 39 c2             	cmp    rdx,rax
    39b6:	72 0d                	jb     39c5 <dlmalloc+0x425>
    39b8:	49 03 46 08          	add    rax,QWORD PTR [r14+0x8]
    39bc:	48 39 c2             	cmp    rdx,rax
    39bf:	0f 82 ff 0d 00 00    	jb     47c4 <dlmalloc+0x1224>
    39c5:	4d 8b 76 10          	mov    r14,QWORD PTR [r14+0x10]
    39c9:	4d 85 f6             	test   r14,r14
    39cc:	75 e2                	jne    39b0 <dlmalloc+0x410>
    39ce:	b8 01 00 00 00       	mov    eax,0x1
    39d3:	87 05 17 5b 20 00    	xchg   DWORD PTR [rip+0x205b17],eax        # 2094f0 <malloc_global_mutex>
    39d9:	85 c0                	test   eax,eax
    39db:	0f 85 7d 09 00 00    	jne    435e <dlmalloc+0xdbe>
    39e1:	31 ff                	xor    edi,edi
    39e3:	48 89 0c 24          	mov    QWORD PTR [rsp],rcx
    39e7:	e8 44 21 00 00       	call   5b30 <sbrk>
    39ec:	48 83 f8 ff          	cmp    rax,0xffffffffffffffff
    39f0:	49 89 c6             	mov    r14,rax
    39f3:	48 8b 0c 24          	mov    rcx,QWORD PTR [rsp]
    39f7:	74 5f                	je     3a58 <dlmalloc+0x4b8>
    39f9:	48 8b 15 c8 5a 20 00 	mov    rdx,QWORD PTR [rip+0x205ac8]        # 2094c8 <mparams+0x8>
    3a00:	49 89 cf             	mov    r15,rcx
    3a03:	48 8d 42 ff          	lea    rax,[rdx-0x1]
    3a07:	49 85 c6             	test   r14,rax
    3a0a:	74 0f                	je     3a1b <dlmalloc+0x47b>
    3a0c:	4c 01 f0             	add    rax,r14
    3a0f:	48 f7 da             	neg    rdx
    3a12:	4d 29 f7             	sub    r15,r14
    3a15:	48 21 d0             	and    rax,rdx
    3a18:	49 01 c7             	add    r15,rax
    3a1b:	4c 39 fd             	cmp    rbp,r15
    3a1e:	73 38                	jae    3a58 <dlmalloc+0x4b8>
    3a20:	48 b8 fe ff ff ff ff 	movabs rax,0x7ffffffffffffffe
    3a27:	ff ff 7f 
    3a2a:	49 39 c7             	cmp    r15,rax
    3a2d:	77 29                	ja     3a58 <dlmalloc+0x4b8>
    3a2f:	48 8b 35 32 5a 20 00 	mov    rsi,QWORD PTR [rip+0x205a32]        # 209468 <_gm_+0x368>
    3a36:	48 85 f6             	test   rsi,rsi
    3a39:	0f 84 b9 13 00 00    	je     4df8 <dlmalloc+0x1858>
    3a3f:	48 8b 15 12 5a 20 00 	mov    rdx,QWORD PTR [rip+0x205a12]        # 209458 <_gm_+0x358>
    3a46:	49 8d 04 17          	lea    rax,[r15+rdx*1]
    3a4a:	48 39 c6             	cmp    rsi,rax
    3a4d:	72 09                	jb     3a58 <dlmalloc+0x4b8>
    3a4f:	48 39 c2             	cmp    rdx,rax
    3a52:	0f 82 a0 13 00 00    	jb     4df8 <dlmalloc+0x1858>
    3a58:	c7 05 8e 5a 20 00 00 	mov    DWORD PTR [rip+0x205a8e],0x0        # 2094f0 <malloc_global_mutex>
    3a5f:	00 00 00 
    3a62:	48 b8 fe ff ff ff ff 	movabs rax,0x7ffffffffffffffe
    3a69:	ff ff 7f 
    3a6c:	48 39 c1             	cmp    rcx,rax
    3a6f:	0f 86 7d 04 00 00    	jbe    3ef2 <dlmalloc+0x952>
    3a75:	e8 c6 23 00 00       	call   5e40 <__errno>
    3a7a:	31 db                	xor    ebx,ebx
    3a7c:	c7 00 0c 00 00 00    	mov    DWORD PTR [rax],0xc
    3a82:	e9 1a fc ff ff       	jmp    36a1 <dlmalloc+0x101>
    3a87:	66 0f 1f 84 00 00 00 	nop    WORD PTR [rax+rax*1+0x0]
    3a8e:	00 00 
    3a90:	48 89 e8             	mov    rax,rbp
    3a93:	49 89 e9             	mov    r9,rbp
    3a96:	48 c1 e8 08          	shr    rax,0x8
    3a9a:	49 f7 d9             	neg    r9
    3a9d:	85 c0                	test   eax,eax
    3a9f:	0f 85 13 04 00 00    	jne    3eb8 <dlmalloc+0x918>
    3aa5:	48 8b 05 ac 58 20 00 	mov    rax,QWORD PTR [rip+0x2058ac]        # 209358 <_gm_+0x258>
    3aac:	45 31 d2             	xor    r10d,r10d
    3aaf:	b9 39 00 00 00       	mov    ecx,0x39
    3ab4:	48 85 c0             	test   rax,rax
    3ab7:	0f 84 ee 0c 00 00    	je     47ab <dlmalloc+0x120b>
    3abd:	48 89 eb             	mov    rbx,rbp
    3ac0:	48 d3 e3             	shl    rbx,cl
    3ac3:	48 89 d9             	mov    rcx,rbx
    3ac6:	45 31 db             	xor    r11d,r11d
    3ac9:	31 db                	xor    ebx,ebx
    3acb:	eb 06                	jmp    3ad3 <dlmalloc+0x533>
    3acd:	0f 1f 00             	nop    DWORD PTR [rax]
    3ad0:	48 01 c9             	add    rcx,rcx
    3ad3:	48 8b 50 08          	mov    rdx,QWORD PTR [rax+0x8]
    3ad7:	48 83 e2 f8          	and    rdx,0xfffffffffffffff8
    3adb:	48 29 ea             	sub    rdx,rbp
    3ade:	4c 39 ca             	cmp    rdx,r9
    3ae1:	73 0f                	jae    3af2 <dlmalloc+0x552>
    3ae3:	48 85 d2             	test   rdx,rdx
    3ae6:	0f 84 fe 0a 00 00    	je     45ea <dlmalloc+0x104a>
    3aec:	49 89 d1             	mov    r9,rdx
    3aef:	48 89 c3             	mov    rbx,rax
    3af2:	4c 8b 70 28          	mov    r14,QWORD PTR [rax+0x28]
    3af6:	48 89 ca             	mov    rdx,rcx
    3af9:	48 c1 ea 3f          	shr    rdx,0x3f
    3afd:	48 83 c2 04          	add    rdx,0x4
    3b01:	4d 85 f6             	test   r14,r14
    3b04:	48 8b 04 d0          	mov    rax,QWORD PTR [rax+rdx*8]
    3b08:	74 07                	je     3b11 <dlmalloc+0x571>
    3b0a:	49 39 c6             	cmp    r14,rax
    3b0d:	4d 0f 45 de          	cmovne r11,r14
    3b11:	48 85 c0             	test   rax,rax
    3b14:	75 ba                	jne    3ad0 <dlmalloc+0x530>
    3b16:	4d 85 db             	test   r11,r11
    3b19:	0f 85 5a 0a 00 00    	jne    4579 <dlmalloc+0xfd9>
    3b1f:	48 85 db             	test   rbx,rbx
    3b22:	0f 85 51 0a 00 00    	jne    4579 <dlmalloc+0xfd9>
    3b28:	b8 fe ff ff ff       	mov    eax,0xfffffffe
    3b2d:	44 89 d1             	mov    ecx,r10d
    3b30:	4c 89 ca             	mov    rdx,r9
    3b33:	d3 e0                	shl    eax,cl
    3b35:	44 21 c0             	and    eax,r8d
    3b38:	0f 84 0b fc ff ff    	je     3749 <dlmalloc+0x1a9>
    3b3e:	89 c1                	mov    ecx,eax
    3b40:	31 db                	xor    ebx,ebx
    3b42:	f7 d9                	neg    ecx
    3b44:	21 c8                	and    eax,ecx
    3b46:	f3 0f bc c0          	tzcnt  eax,eax
    3b4a:	89 c0                	mov    eax,eax
    3b4c:	49 8b 84 c5 58 02 00 	mov    rax,QWORD PTR [r13+rax*8+0x258]
    3b53:	00 
    3b54:	48 85 c0             	test   rax,rax
    3b57:	75 0a                	jne    3b63 <dlmalloc+0x5c3>
    3b59:	e9 eb fb ff ff       	jmp    3749 <dlmalloc+0x1a9>
    3b5e:	66 90                	xchg   ax,ax
    3b60:	48 89 c8             	mov    rax,rcx
    3b63:	48 8b 48 08          	mov    rcx,QWORD PTR [rax+0x8]
    3b67:	48 83 e1 f8          	and    rcx,0xfffffffffffffff8
    3b6b:	48 29 e9             	sub    rcx,rbp
    3b6e:	48 39 d1             	cmp    rcx,rdx
    3b71:	73 06                	jae    3b79 <dlmalloc+0x5d9>
    3b73:	48 89 ca             	mov    rdx,rcx
    3b76:	48 89 c3             	mov    rbx,rax
    3b79:	48 8b 48 20          	mov    rcx,QWORD PTR [rax+0x20]
    3b7d:	48 85 c9             	test   rcx,rcx
    3b80:	75 de                	jne    3b60 <dlmalloc+0x5c0>
    3b82:	48 8b 48 28          	mov    rcx,QWORD PTR [rax+0x28]
    3b86:	48 85 c9             	test   rcx,rcx
    3b89:	75 d5                	jne    3b60 <dlmalloc+0x5c0>
    3b8b:	48 85 db             	test   rbx,rbx
    3b8e:	0f 84 b5 fb ff ff    	je     3749 <dlmalloc+0x1a9>
    3b94:	48 89 f0             	mov    rax,rsi
    3b97:	48 29 e8             	sub    rax,rbp
    3b9a:	48 39 d0             	cmp    rax,rdx
    3b9d:	0f 86 a6 fb ff ff    	jbe    3749 <dlmalloc+0x1a9>
    3ba3:	4c 8b 1d 6e 55 20 00 	mov    r11,QWORD PTR [rip+0x20556e]        # 209118 <_gm_+0x18>
    3baa:	49 39 db             	cmp    r11,rbx
    3bad:	0f 87 2d 01 00 00    	ja     3ce0 <dlmalloc+0x740>
    3bb3:	4c 8d 14 2b          	lea    r10,[rbx+rbp*1]
    3bb7:	49 39 da             	cmp    r10,rbx
    3bba:	0f 86 20 01 00 00    	jbe    3ce0 <dlmalloc+0x740>
    3bc0:	48 8b 43 18          	mov    rax,QWORD PTR [rbx+0x18]
    3bc4:	4c 8b 73 30          	mov    r14,QWORD PTR [rbx+0x30]
    3bc8:	48 39 d8             	cmp    rax,rbx
    3bcb:	0f 84 8c 0a 00 00    	je     465d <dlmalloc+0x10bd>
    3bd1:	48 8b 4b 10          	mov    rcx,QWORD PTR [rbx+0x10]
    3bd5:	49 39 cb             	cmp    r11,rcx
    3bd8:	0f 87 02 01 00 00    	ja     3ce0 <dlmalloc+0x740>
    3bde:	48 39 59 18          	cmp    QWORD PTR [rcx+0x18],rbx
    3be2:	0f 85 f8 00 00 00    	jne    3ce0 <dlmalloc+0x740>
    3be8:	48 39 58 10          	cmp    QWORD PTR [rax+0x10],rbx
    3bec:	0f 85 ee 00 00 00    	jne    3ce0 <dlmalloc+0x740>
    3bf2:	48 89 41 18          	mov    QWORD PTR [rcx+0x18],rax
    3bf6:	48 89 48 10          	mov    QWORD PTR [rax+0x10],rcx
    3bfa:	4d 85 f6             	test   r14,r14
    3bfd:	74 6e                	je     3c6d <dlmalloc+0x6cd>
    3bff:	8b 7b 38             	mov    edi,DWORD PTR [rbx+0x38]
    3c02:	48 89 f9             	mov    rcx,rdi
    3c05:	48 83 c7 4a          	add    rdi,0x4a
    3c09:	49 39 5c fd 08       	cmp    QWORD PTR [r13+rdi*8+0x8],rbx
    3c0e:	0f 84 c8 0b 00 00    	je     47dc <dlmalloc+0x123c>
    3c14:	4d 39 f3             	cmp    r11,r14
    3c17:	0f 87 c3 00 00 00    	ja     3ce0 <dlmalloc+0x740>
    3c1d:	49 39 5e 20          	cmp    QWORD PTR [r14+0x20],rbx
    3c21:	0f 84 dd 0c 00 00    	je     4904 <dlmalloc+0x1364>
    3c27:	49 89 46 28          	mov    QWORD PTR [r14+0x28],rax
    3c2b:	48 85 c0             	test   rax,rax
    3c2e:	74 3d                	je     3c6d <dlmalloc+0x6cd>
    3c30:	49 39 c3             	cmp    r11,rax
    3c33:	0f 87 a7 00 00 00    	ja     3ce0 <dlmalloc+0x740>
    3c39:	48 8b 4b 20          	mov    rcx,QWORD PTR [rbx+0x20]
    3c3d:	4c 89 70 30          	mov    QWORD PTR [rax+0x30],r14
    3c41:	48 85 c9             	test   rcx,rcx
    3c44:	74 11                	je     3c57 <dlmalloc+0x6b7>
    3c46:	49 39 cb             	cmp    r11,rcx
    3c49:	0f 87 91 00 00 00    	ja     3ce0 <dlmalloc+0x740>
    3c4f:	48 89 48 20          	mov    QWORD PTR [rax+0x20],rcx
    3c53:	48 89 41 30          	mov    QWORD PTR [rcx+0x30],rax
    3c57:	48 8b 4b 28          	mov    rcx,QWORD PTR [rbx+0x28]
    3c5b:	48 85 c9             	test   rcx,rcx
    3c5e:	74 0d                	je     3c6d <dlmalloc+0x6cd>
    3c60:	49 39 cb             	cmp    r11,rcx
    3c63:	77 7b                	ja     3ce0 <dlmalloc+0x740>
    3c65:	48 89 48 28          	mov    QWORD PTR [rax+0x28],rcx
    3c69:	48 89 41 30          	mov    QWORD PTR [rcx+0x30],rax
    3c6d:	48 8b 0d 4c 58 20 00 	mov    rcx,QWORD PTR [rip+0x20584c]        # 2094c0 <mparams>
    3c74:	4c 31 e9             	xor    rcx,r13
    3c77:	48 83 fa 1f          	cmp    rdx,0x1f
    3c7b:	0f 87 71 09 00 00    	ja     45f2 <dlmalloc+0x1052>
    3c81:	48 8d 44 15 00       	lea    rax,[rbp+rdx*1+0x0]
    3c86:	48 89 c2             	mov    rdx,rax
    3c89:	48 01 d8             	add    rax,rbx
    3c8c:	48 83 ca 03          	or     rdx,0x3
    3c90:	48 89 53 08          	mov    QWORD PTR [rbx+0x8],rdx
    3c94:	48 83 48 08 01       	or     QWORD PTR [rax+0x8],0x1
    3c99:	48 89 08             	mov    QWORD PTR [rax],rcx
    3c9c:	48 83 c3 10          	add    rbx,0x10
    3ca0:	48 89 f7             	mov    rdi,rsi
    3ca3:	0f 85 c8 f9 ff ff    	jne    3671 <dlmalloc+0xd1>
    3ca9:	e9 9b fa ff ff       	jmp    3749 <dlmalloc+0x1a9>
    3cae:	66 90                	xchg   ax,ax
    3cb0:	b8 fe ff ff ff       	mov    eax,0xfffffffe
    3cb5:	d3 c0                	rol    eax,cl
    3cb7:	21 c2                	and    edx,eax
    3cb9:	89 15 41 54 20 00    	mov    DWORD PTR [rip+0x205441],edx        # 209100 <_gm_>
    3cbf:	e9 81 f9 ff ff       	jmp    3645 <dlmalloc+0xa5>
    3cc4:	4c 3b 0d 4d 54 20 00 	cmp    r9,QWORD PTR [rip+0x20544d]        # 209118 <_gm_+0x18>
    3ccb:	72 13                	jb     3ce0 <dlmalloc+0x740>
    3ccd:	49 39 51 18          	cmp    QWORD PTR [r9+0x18],rdx
    3cd1:	0f 84 87 0f 00 00    	je     4c5e <dlmalloc+0x16be>
    3cd7:	66 0f 1f 84 00 00 00 	nop    WORD PTR [rax+rax*1+0x0]
    3cde:	00 00 
    3ce0:	e8 c4 2e 00 00       	call   6ba9 <abort>
    3ce5:	44 8b 05 18 54 20 00 	mov    r8d,DWORD PTR [rip+0x205418]        # 209104 <_gm_+0x4>
    3cec:	45 85 c0             	test   r8d,r8d
    3cef:	0f 84 5d fa ff ff    	je     3752 <dlmalloc+0x1b2>
    3cf5:	44 89 c0             	mov    eax,r8d
    3cf8:	f7 d8                	neg    eax
    3cfa:	44 21 c0             	and    eax,r8d
    3cfd:	f3 0f bc c0          	tzcnt  eax,eax
    3d01:	89 c0                	mov    eax,eax
    3d03:	49 8b 84 c5 58 02 00 	mov    rax,QWORD PTR [r13+rax*8+0x258]
    3d0a:	00 
    3d0b:	48 8b 78 08          	mov    rdi,QWORD PTR [rax+0x8]
    3d0f:	48 89 c3             	mov    rbx,rax
    3d12:	48 83 e7 f8          	and    rdi,0xfffffffffffffff8
    3d16:	48 29 ef             	sub    rdi,rbp
    3d19:	eb 1e                	jmp    3d39 <dlmalloc+0x799>
    3d1b:	0f 1f 44 00 00       	nop    DWORD PTR [rax+rax*1+0x0]
    3d20:	48 8b 41 08          	mov    rax,QWORD PTR [rcx+0x8]
    3d24:	48 83 e0 f8          	and    rax,0xfffffffffffffff8
    3d28:	48 29 e8             	sub    rax,rbp
    3d2b:	48 39 f8             	cmp    rax,rdi
    3d2e:	73 06                	jae    3d36 <dlmalloc+0x796>
    3d30:	48 89 c7             	mov    rdi,rax
    3d33:	48 89 cb             	mov    rbx,rcx
    3d36:	48 89 c8             	mov    rax,rcx
    3d39:	48 8b 48 20          	mov    rcx,QWORD PTR [rax+0x20]
    3d3d:	48 85 c9             	test   rcx,rcx
    3d40:	75 de                	jne    3d20 <dlmalloc+0x780>
    3d42:	48 8b 48 28          	mov    rcx,QWORD PTR [rax+0x28]
    3d46:	48 85 c9             	test   rcx,rcx
    3d49:	75 d5                	jne    3d20 <dlmalloc+0x780>
    3d4b:	4c 8b 35 c6 53 20 00 	mov    r14,QWORD PTR [rip+0x2053c6]        # 209118 <_gm_+0x18>
    3d52:	49 39 de             	cmp    r14,rbx
    3d55:	77 89                	ja     3ce0 <dlmalloc+0x740>
    3d57:	4c 8d 1c 2b          	lea    r11,[rbx+rbp*1]
    3d5b:	49 39 db             	cmp    r11,rbx
    3d5e:	76 80                	jbe    3ce0 <dlmalloc+0x740>
    3d60:	48 8b 43 18          	mov    rax,QWORD PTR [rbx+0x18]
    3d64:	4c 8b 7b 30          	mov    r15,QWORD PTR [rbx+0x30]
    3d68:	48 39 d8             	cmp    rax,rbx
    3d6b:	0f 84 81 0c 00 00    	je     49f2 <dlmalloc+0x1452>
    3d71:	48 8b 4b 10          	mov    rcx,QWORD PTR [rbx+0x10]
    3d75:	49 39 ce             	cmp    r14,rcx
    3d78:	0f 87 62 ff ff ff    	ja     3ce0 <dlmalloc+0x740>
    3d7e:	48 39 59 18          	cmp    QWORD PTR [rcx+0x18],rbx
    3d82:	0f 85 58 ff ff ff    	jne    3ce0 <dlmalloc+0x740>
    3d88:	48 39 58 10          	cmp    QWORD PTR [rax+0x10],rbx
    3d8c:	0f 85 4e ff ff ff    	jne    3ce0 <dlmalloc+0x740>
    3d92:	48 89 41 18          	mov    QWORD PTR [rcx+0x18],rax
    3d96:	48 89 48 10          	mov    QWORD PTR [rax+0x10],rcx
    3d9a:	4d 85 ff             	test   r15,r15
    3d9d:	74 73                	je     3e12 <dlmalloc+0x872>
    3d9f:	44 8b 4b 38          	mov    r9d,DWORD PTR [rbx+0x38]
    3da3:	4c 89 c9             	mov    rcx,r9
    3da6:	49 83 c1 4a          	add    r9,0x4a
    3daa:	4b 39 5c cd 08       	cmp    QWORD PTR [r13+r9*8+0x8],rbx
    3daf:	0f 84 f5 0d 00 00    	je     4baa <dlmalloc+0x160a>
    3db5:	4d 39 fe             	cmp    r14,r15
    3db8:	0f 87 22 ff ff ff    	ja     3ce0 <dlmalloc+0x740>
    3dbe:	49 39 5f 20          	cmp    QWORD PTR [r15+0x20],rbx
    3dc2:	0f 84 bf 0e 00 00    	je     4c87 <dlmalloc+0x16e7>
    3dc8:	49 89 47 28          	mov    QWORD PTR [r15+0x28],rax
    3dcc:	48 85 c0             	test   rax,rax
    3dcf:	74 41                	je     3e12 <dlmalloc+0x872>
    3dd1:	49 39 c6             	cmp    r14,rax
    3dd4:	0f 87 06 ff ff ff    	ja     3ce0 <dlmalloc+0x740>
    3dda:	48 8b 4b 20          	mov    rcx,QWORD PTR [rbx+0x20]
    3dde:	4c 89 78 30          	mov    QWORD PTR [rax+0x30],r15
    3de2:	48 85 c9             	test   rcx,rcx
    3de5:	74 11                	je     3df8 <dlmalloc+0x858>
    3de7:	49 39 ce             	cmp    r14,rcx
    3dea:	0f 87 f0 fe ff ff    	ja     3ce0 <dlmalloc+0x740>
    3df0:	48 89 48 20          	mov    QWORD PTR [rax+0x20],rcx
    3df4:	48 89 41 30          	mov    QWORD PTR [rcx+0x30],rax
    3df8:	48 8b 4b 28          	mov    rcx,QWORD PTR [rbx+0x28]
    3dfc:	48 85 c9             	test   rcx,rcx
    3dff:	74 11                	je     3e12 <dlmalloc+0x872>
    3e01:	49 39 ce             	cmp    r14,rcx
    3e04:	0f 87 d6 fe ff ff    	ja     3ce0 <dlmalloc+0x740>
    3e0a:	48 89 48 28          	mov    QWORD PTR [rax+0x28],rcx
    3e0e:	48 89 41 30          	mov    QWORD PTR [rcx+0x30],rax
    3e12:	48 8b 0d a7 56 20 00 	mov    rcx,QWORD PTR [rip+0x2056a7]        # 2094c0 <mparams>
    3e19:	4c 31 e9             	xor    rcx,r13
    3e1c:	48 83 ff 1f          	cmp    rdi,0x1f
    3e20:	0f 86 ac 0b 00 00    	jbe    49d2 <dlmalloc+0x1432>
    3e26:	48 89 e8             	mov    rax,rbp
    3e29:	48 83 c8 03          	or     rax,0x3
    3e2d:	48 89 43 08          	mov    QWORD PTR [rbx+0x8],rax
    3e31:	48 89 f8             	mov    rax,rdi
    3e34:	49 89 0b             	mov    QWORD PTR [r11],rcx
    3e37:	48 83 c8 01          	or     rax,0x1
    3e3b:	48 85 f6             	test   rsi,rsi
    3e3e:	49 89 43 08          	mov    QWORD PTR [r11+0x8],rax
    3e42:	49 89 3c 3b          	mov    QWORD PTR [r11+rdi*1],rdi
    3e46:	74 45                	je     3e8d <dlmalloc+0x8ed>
    3e48:	48 c1 ee 03          	shr    rsi,0x3
    3e4c:	41 b9 01 00 00 00    	mov    r9d,0x1
    3e52:	48 8b 05 c7 52 20 00 	mov    rax,QWORD PTR [rip+0x2052c7]        # 209120 <_gm_+0x20>
    3e59:	48 89 f1             	mov    rcx,rsi
    3e5c:	44 8d 04 36          	lea    r8d,[rsi+rsi*1]
    3e60:	41 d3 e1             	shl    r9d,cl
    3e63:	44 85 ca             	test   edx,r9d
    3e66:	4f 8d 44 c5 48       	lea    r8,[r13+r8*8+0x48]
    3e6b:	0f 85 6f 0f 00 00    	jne    4de0 <dlmalloc+0x1840>
    3e71:	44 09 ca             	or     edx,r9d
    3e74:	89 15 86 52 20 00    	mov    DWORD PTR [rip+0x205286],edx        # 209100 <_gm_>
    3e7a:	4c 89 c2             	mov    rdx,r8
    3e7d:	49 89 40 10          	mov    QWORD PTR [r8+0x10],rax
    3e81:	48 89 42 18          	mov    QWORD PTR [rdx+0x18],rax
    3e85:	48 89 50 10          	mov    QWORD PTR [rax+0x10],rdx
    3e89:	4c 89 40 18          	mov    QWORD PTR [rax+0x18],r8
    3e8d:	48 89 3d 74 52 20 00 	mov    QWORD PTR [rip+0x205274],rdi        # 209108 <_gm_+0x8>
    3e94:	4c 89 1d 85 52 20 00 	mov    QWORD PTR [rip+0x205285],r11        # 209120 <_gm_+0x20>
    3e9b:	48 83 c3 10          	add    rbx,0x10
    3e9f:	0f 85 cc f7 ff ff    	jne    3671 <dlmalloc+0xd1>
    3ea5:	48 8b 3d 5c 52 20 00 	mov    rdi,QWORD PTR [rip+0x20525c]        # 209108 <_gm_+0x8>
    3eac:	e9 98 f8 ff ff       	jmp    3749 <dlmalloc+0x1a9>
    3eb1:	0f 1f 80 00 00 00 00 	nop    DWORD PTR [rax+0x0]
    3eb8:	3d ff ff 00 00       	cmp    eax,0xffff
    3ebd:	0f 86 ca 06 00 00    	jbe    458d <dlmalloc+0xfed>
    3ec3:	48 8b 05 86 55 20 00 	mov    rax,QWORD PTR [rip+0x205586]        # 209450 <_gm_+0x350>
    3eca:	48 89 e9             	mov    rcx,rbp
    3ecd:	41 ba 1f 00 00 00    	mov    r10d,0x1f
    3ed3:	48 85 c0             	test   rax,rax
    3ed6:	0f 85 ea fb ff ff    	jne    3ac6 <dlmalloc+0x526>
    3edc:	e9 68 f8 ff ff       	jmp    3749 <dlmalloc+0x1a9>
    3ee1:	d3 e7                	shl    edi,cl
    3ee3:	f7 d7                	not    edi
    3ee5:	21 fa                	and    edx,edi
    3ee7:	89 15 13 52 20 00    	mov    DWORD PTR [rip+0x205213],edx        # 209100 <_gm_>
    3eed:	e9 9a f9 ff ff       	jmp    388c <dlmalloc+0x2ec>
    3ef2:	b8 01 00 00 00       	mov    eax,0x1
    3ef7:	87 05 f3 55 20 00    	xchg   DWORD PTR [rip+0x2055f3],eax        # 2094f0 <malloc_global_mutex>
    3efd:	48 8d 15 ec 55 20 00 	lea    rdx,[rip+0x2055ec]        # 2094f0 <malloc_global_mutex>
    3f04:	be 01 00 00 00       	mov    esi,0x1
    3f09:	85 c0                	test   eax,eax
    3f0b:	0f 85 cf 02 00 00    	jne    41e0 <dlmalloc+0xc40>
    3f11:	48 89 cf             	mov    rdi,rcx
    3f14:	e8 17 1c 00 00       	call   5b30 <sbrk>
    3f19:	31 ff                	xor    edi,edi
    3f1b:	48 89 c3             	mov    rbx,rax
    3f1e:	e8 0d 1c 00 00       	call   5b30 <sbrk>
    3f23:	48 83 fb ff          	cmp    rbx,0xffffffffffffffff
    3f27:	0f 95 c1             	setne  cl
    3f2a:	48 83 f8 ff          	cmp    rax,0xffffffffffffffff
    3f2e:	0f 95 c2             	setne  dl
    3f31:	84 d1                	test   cl,dl
    3f33:	c7 05 b3 55 20 00 00 	mov    DWORD PTR [rip+0x2055b3],0x0        # 2094f0 <malloc_global_mutex>
    3f3a:	00 00 00 
    3f3d:	0f 84 32 fb ff ff    	je     3a75 <dlmalloc+0x4d5>
    3f43:	48 39 c3             	cmp    rbx,rax
    3f46:	0f 83 29 fb ff ff    	jae    3a75 <dlmalloc+0x4d5>
    3f4c:	48 29 d8             	sub    rax,rbx
    3f4f:	49 89 c7             	mov    r15,rax
    3f52:	48 8d 45 50          	lea    rax,[rbp+0x50]
    3f56:	49 39 c7             	cmp    r15,rax
    3f59:	0f 86 16 fb ff ff    	jbe    3a75 <dlmalloc+0x4d5>
    3f5f:	48 83 fb ff          	cmp    rbx,0xffffffffffffffff
    3f63:	0f 84 0c fb ff ff    	je     3a75 <dlmalloc+0x4d5>
    3f69:	48 8b 05 e8 54 20 00 	mov    rax,QWORD PTR [rip+0x2054e8]        # 209458 <_gm_+0x358>
    3f70:	4c 01 f8             	add    rax,r15
    3f73:	48 3b 05 e6 54 20 00 	cmp    rax,QWORD PTR [rip+0x2054e6]        # 209460 <_gm_+0x360>
    3f7a:	48 89 05 d7 54 20 00 	mov    QWORD PTR [rip+0x2054d7],rax        # 209458 <_gm_+0x358>
    3f81:	76 07                	jbe    3f8a <dlmalloc+0x9ea>
    3f83:	48 89 05 d6 54 20 00 	mov    QWORD PTR [rip+0x2054d6],rax        # 209460 <_gm_+0x360>
    3f8a:	48 8b 35 97 51 20 00 	mov    rsi,QWORD PTR [rip+0x205197]        # 209128 <_gm_+0x28>
    3f91:	48 8d 05 e0 54 20 00 	lea    rax,[rip+0x2054e0]        # 209478 <_gm_+0x378>
    3f98:	48 85 f6             	test   rsi,rsi
    3f9b:	0f 84 11 05 00 00    	je     44b2 <dlmalloc+0xf12>
    3fa1:	0f 1f 80 00 00 00 00 	nop    DWORD PTR [rax+0x0]
    3fa8:	48 8b 08             	mov    rcx,QWORD PTR [rax]
    3fab:	48 8b 50 08          	mov    rdx,QWORD PTR [rax+0x8]
    3faf:	48 8d 3c 11          	lea    rdi,[rcx+rdx*1]
    3fb3:	48 39 df             	cmp    rdi,rbx
    3fb6:	0f 84 24 03 00 00    	je     42e0 <dlmalloc+0xd40>
    3fbc:	48 8b 40 10          	mov    rax,QWORD PTR [rax+0x10]
    3fc0:	48 85 c0             	test   rax,rax
    3fc3:	75 e3                	jne    3fa8 <dlmalloc+0xa08>
    3fc5:	48 39 1d 4c 51 20 00 	cmp    QWORD PTR [rip+0x20514c],rbx        # 209118 <_gm_+0x18>
    3fcc:	76 07                	jbe    3fd5 <dlmalloc+0xa35>
    3fce:	48 89 1d 43 51 20 00 	mov    QWORD PTR [rip+0x205143],rbx        # 209118 <_gm_+0x18>
    3fd5:	4a 8d 0c 3b          	lea    rcx,[rbx+r15*1]
    3fd9:	48 8d 05 98 54 20 00 	lea    rax,[rip+0x205498]        # 209478 <_gm_+0x378>
    3fe0:	48 8b 10             	mov    rdx,QWORD PTR [rax]
    3fe3:	48 39 ca             	cmp    rdx,rcx
    3fe6:	0f 84 02 02 00 00    	je     41ee <dlmalloc+0xc4e>
    3fec:	48 8b 40 10          	mov    rax,QWORD PTR [rax+0x10]
    3ff0:	48 85 c0             	test   rax,rax
    3ff3:	75 eb                	jne    3fe0 <dlmalloc+0xa40>
    3ff5:	48 8d 7b 10          	lea    rdi,[rbx+0x10]
    3ff9:	49 89 f8             	mov    r8,rdi
    3ffc:	41 83 e0 0f          	and    r8d,0xf
    4000:	48 8d 05 71 54 20 00 	lea    rax,[rip+0x205471]        # 209478 <_gm_+0x378>
    4007:	66 0f 1f 84 00 00 00 	nop    WORD PTR [rax+rax*1+0x0]
    400e:	00 00 
    4010:	48 8b 10             	mov    rdx,QWORD PTR [rax]
    4013:	48 39 d6             	cmp    rsi,rdx
    4016:	72 09                	jb     4021 <dlmalloc+0xa81>
    4018:	48 03 50 08          	add    rdx,QWORD PTR [rax+0x8]
    401c:	48 39 d6             	cmp    rsi,rdx
    401f:	72 09                	jb     402a <dlmalloc+0xa8a>
    4021:	48 8b 40 10          	mov    rax,QWORD PTR [rax+0x10]
    4025:	48 85 c0             	test   rax,rax
    4028:	75 e6                	jne    4010 <dlmalloc+0xa70>
    402a:	48 8b 48 08          	mov    rcx,QWORD PTR [rax+0x8]
    402e:	48 03 08             	add    rcx,QWORD PTR [rax]
    4031:	48 c7 c2 a1 ff ff ff 	mov    rdx,0xffffffffffffffa1
    4038:	48 8d 41 b1          	lea    rax,[rcx-0x4f]
    403c:	a8 0f                	test   al,0xf
    403e:	74 09                	je     4049 <dlmalloc+0xaa9>
    4040:	48 f7 d8             	neg    rax
    4043:	83 e0 0f             	and    eax,0xf
    4046:	48 01 c2             	add    rdx,rax
    4049:	48 8d 46 20          	lea    rax,[rsi+0x20]
    404d:	48 01 ca             	add    rdx,rcx
    4050:	4d 8d 4f b0          	lea    r9,[r15-0x50]
    4054:	48 39 c2             	cmp    rdx,rax
    4057:	48 0f 42 d6          	cmovb  rdx,rsi
    405b:	4d 85 c0             	test   r8,r8
    405e:	4c 8d 52 10          	lea    r10,[rdx+0x10]
    4062:	0f 84 77 05 00 00    	je     45df <dlmalloc+0x103f>
    4068:	48 f7 df             	neg    rdi
    406b:	4c 89 c8             	mov    rax,r9
    406e:	83 e7 0f             	and    edi,0xf
    4071:	4c 8d 04 3b          	lea    r8,[rbx+rdi*1]
    4075:	48 29 f8             	sub    rax,rdi
    4078:	48 89 05 91 50 20 00 	mov    QWORD PTR [rip+0x205091],rax        # 209110 <_gm_+0x10>
    407f:	48 83 c8 01          	or     rax,0x1
    4083:	4c 89 05 9e 50 20 00 	mov    QWORD PTR [rip+0x20509e],r8        # 209128 <_gm_+0x28>
    408a:	49 89 40 08          	mov    QWORD PTR [r8+0x8],rax
    408e:	48 8b 05 4b 54 20 00 	mov    rax,QWORD PTR [rip+0x20544b]        # 2094e0 <mparams+0x20>
    4095:	f3 0f 6f 05 db 53 20 	movdqu xmm0,XMMWORD PTR [rip+0x2053db]        # 209478 <_gm_+0x378>
    409c:	00 
    409d:	4a c7 44 0b 08 50 00 	mov    QWORD PTR [rbx+r9*1+0x8],0x50
    40a4:	00 00 
    40a6:	48 89 05 83 50 20 00 	mov    QWORD PTR [rip+0x205083],rax        # 209130 <_gm_+0x30>
    40ad:	48 8b 05 0c 54 20 00 	mov    rax,QWORD PTR [rip+0x20540c]        # 2094c0 <mparams>
    40b4:	0f 11 42 10          	movups XMMWORD PTR [rdx+0x10],xmm0
    40b8:	48 c7 42 08 33 00 00 	mov    QWORD PTR [rdx+0x8],0x33
    40bf:	00 
    40c0:	4c 31 e8             	xor    rax,r13
    40c3:	f3 0f 6f 05 bd 53 20 	movdqu xmm0,XMMWORD PTR [rip+0x2053bd]        # 209488 <_gm_+0x388>
    40ca:	00 
    40cb:	48 89 42 30          	mov    QWORD PTR [rdx+0x30],rax
    40cf:	48 8d 42 38          	lea    rax,[rdx+0x38]
    40d3:	0f 11 42 20          	movups XMMWORD PTR [rdx+0x20],xmm0
    40d7:	48 89 1d 9a 53 20 00 	mov    QWORD PTR [rip+0x20539a],rbx        # 209478 <_gm_+0x378>
    40de:	4c 89 3d 9b 53 20 00 	mov    QWORD PTR [rip+0x20539b],r15        # 209480 <_gm_+0x380>
    40e5:	c7 05 a1 53 20 00 00 	mov    DWORD PTR [rip+0x2053a1],0x0        # 209490 <_gm_+0x390>
    40ec:	00 00 00 
    40ef:	4c 89 15 92 53 20 00 	mov    QWORD PTR [rip+0x205392],r10        # 209488 <_gm_+0x388>
    40f6:	66 2e 0f 1f 84 00 00 	nop    WORD PTR cs:[rax+rax*1+0x0]
    40fd:	00 00 00 
    4100:	48 c7 00 0b 00 00 00 	mov    QWORD PTR [rax],0xb
    4107:	48 83 c0 08          	add    rax,0x8
    410b:	48 39 c1             	cmp    rcx,rax
    410e:	77 f0                	ja     4100 <dlmalloc+0xb60>
    4110:	48 39 d6             	cmp    rsi,rdx
    4113:	0f 84 9f 06 00 00    	je     47b8 <dlmalloc+0x1218>
    4119:	48 89 d7             	mov    rdi,rdx
    411c:	48 83 62 08 fe       	and    QWORD PTR [rdx+0x8],0xfffffffffffffffe
    4121:	48 29 f7             	sub    rdi,rsi
    4124:	48 89 f9             	mov    rcx,rdi
    4127:	48 89 f8             	mov    rax,rdi
    412a:	48 c1 e9 03          	shr    rcx,0x3
    412e:	48 83 c8 01          	or     rax,0x1
    4132:	48 83 f9 1f          	cmp    rcx,0x1f
    4136:	48 89 46 08          	mov    QWORD PTR [rsi+0x8],rax
    413a:	48 89 3a             	mov    QWORD PTR [rdx],rdi
    413d:	0f 87 62 05 00 00    	ja     46a5 <dlmalloc+0x1105>
    4143:	8d 04 09             	lea    eax,[rcx+rcx*1]
    4146:	8b 15 b4 4f 20 00    	mov    edx,DWORD PTR [rip+0x204fb4]        # 209100 <_gm_>
    414c:	49 8d 7c c5 48       	lea    rdi,[r13+rax*8+0x48]
    4151:	b8 01 00 00 00       	mov    eax,0x1
    4156:	d3 e0                	shl    eax,cl
    4158:	85 c2                	test   edx,eax
    415a:	0f 85 4c 07 00 00    	jne    48ac <dlmalloc+0x130c>
    4160:	09 d0                	or     eax,edx
    4162:	89 05 98 4f 20 00    	mov    DWORD PTR [rip+0x204f98],eax        # 209100 <_gm_>
    4168:	48 89 f8             	mov    rax,rdi
    416b:	48 89 77 10          	mov    QWORD PTR [rdi+0x10],rsi
    416f:	48 89 70 18          	mov    QWORD PTR [rax+0x18],rsi
    4173:	48 89 46 10          	mov    QWORD PTR [rsi+0x10],rax
    4177:	48 8b 05 92 4f 20 00 	mov    rax,QWORD PTR [rip+0x204f92]        # 209110 <_gm_+0x10>
    417e:	48 89 7e 18          	mov    QWORD PTR [rsi+0x18],rdi
    4182:	48 39 e8             	cmp    rax,rbp
    4185:	0f 86 ea f8 ff ff    	jbe    3a75 <dlmalloc+0x4d5>
    418b:	48 8b 1d 96 4f 20 00 	mov    rbx,QWORD PTR [rip+0x204f96]        # 209128 <_gm_+0x28>
    4192:	4c 33 2d 27 53 20 00 	xor    r13,QWORD PTR [rip+0x205327]        # 2094c0 <mparams>
    4199:	48 29 e8             	sub    rax,rbp
    419c:	48 89 05 6d 4f 20 00 	mov    QWORD PTR [rip+0x204f6d],rax        # 209110 <_gm_+0x10>
    41a3:	48 83 c8 01          	or     rax,0x1
    41a7:	48 8d 14 2b          	lea    rdx,[rbx+rbp*1]
    41ab:	48 83 cd 03          	or     rbp,0x3
    41af:	48 89 15 72 4f 20 00 	mov    QWORD PTR [rip+0x204f72],rdx        # 209128 <_gm_+0x28>
    41b6:	48 89 42 08          	mov    QWORD PTR [rdx+0x8],rax
    41ba:	48 89 6b 08          	mov    QWORD PTR [rbx+0x8],rbp
    41be:	4c 89 2a             	mov    QWORD PTR [rdx],r13
    41c1:	e9 d5 f5 ff ff       	jmp    379b <dlmalloc+0x1fb>
    41c6:	89 f0                	mov    eax,esi
    41c8:	87 05 22 53 20 00    	xchg   DWORD PTR [rip+0x205322],eax        # 2094f0 <malloc_global_mutex>
    41ce:	85 c0                	test   eax,eax
    41d0:	0f 84 3b fd ff ff    	je     3f11 <dlmalloc+0x971>
    41d6:	66 2e 0f 1f 84 00 00 	nop    WORD PTR cs:[rax+rax*1+0x0]
    41dd:	00 00 00 
    41e0:	8b 02                	mov    eax,DWORD PTR [rdx]
    41e2:	85 c0                	test   eax,eax
    41e4:	74 e0                	je     41c6 <dlmalloc+0xc26>
    41e6:	8b 02                	mov    eax,DWORD PTR [rdx]
    41e8:	85 c0                	test   eax,eax
    41ea:	75 f4                	jne    41e0 <dlmalloc+0xc40>
    41ec:	eb d8                	jmp    41c6 <dlmalloc+0xc26>
    41ee:	48 8d 7b 10          	lea    rdi,[rbx+0x10]
    41f2:	49 89 f8             	mov    r8,rdi
    41f5:	41 83 e0 0f          	and    r8d,0xf
    41f9:	f6 40 18 08          	test   BYTE PTR [rax+0x18],0x8
    41fd:	0f 85 fd fd ff ff    	jne    4000 <dlmalloc+0xa60>
    4203:	4c 01 78 08          	add    QWORD PTR [rax+0x8],r15
    4207:	4d 85 c0             	test   r8,r8
    420a:	48 89 18             	mov    QWORD PTR [rax],rbx
    420d:	74 0c                	je     421b <dlmalloc+0xc7b>
    420f:	48 89 f8             	mov    rax,rdi
    4212:	48 f7 d8             	neg    rax
    4215:	83 e0 0f             	and    eax,0xf
    4218:	48 01 c3             	add    rbx,rax
    421b:	48 8d 42 10          	lea    rax,[rdx+0x10]
    421f:	a8 0f                	test   al,0xf
    4221:	74 09                	je     422c <dlmalloc+0xc8c>
    4223:	48 f7 d8             	neg    rax
    4226:	83 e0 0f             	and    eax,0xf
    4229:	48 01 c2             	add    rdx,rax
    422c:	48 8b 0d 8d 52 20 00 	mov    rcx,QWORD PTR [rip+0x20528d]        # 2094c0 <mparams>
    4233:	48 89 d7             	mov    rdi,rdx
    4236:	48 8d 04 2b          	lea    rax,[rbx+rbp*1]
    423a:	48 29 df             	sub    rdi,rbx
    423d:	48 29 ef             	sub    rdi,rbp
    4240:	48 83 cd 03          	or     rbp,0x3
    4244:	4c 31 e9             	xor    rcx,r13
    4247:	48 39 d6             	cmp    rsi,rdx
    424a:	48 89 6b 08          	mov    QWORD PTR [rbx+0x8],rbp
    424e:	48 89 08             	mov    QWORD PTR [rax],rcx
    4251:	0f 84 2d 08 00 00    	je     4a84 <dlmalloc+0x14e4>
    4257:	48 39 15 c2 4e 20 00 	cmp    QWORD PTR [rip+0x204ec2],rdx        # 209120 <_gm_+0x20>
    425e:	0f 84 a6 09 00 00    	je     4c0a <dlmalloc+0x166a>
    4264:	48 8b 4a 08          	mov    rcx,QWORD PTR [rdx+0x8]
    4268:	48 89 ce             	mov    rsi,rcx
    426b:	83 e6 03             	and    esi,0x3
    426e:	48 83 fe 01          	cmp    rsi,0x1
    4272:	0f 84 bb 09 00 00    	je     4c33 <dlmalloc+0x1693>
    4278:	48 83 e1 fe          	and    rcx,0xfffffffffffffffe
    427c:	48 89 4a 08          	mov    QWORD PTR [rdx+0x8],rcx
    4280:	48 89 f9             	mov    rcx,rdi
    4283:	48 89 fa             	mov    rdx,rdi
    4286:	48 c1 e9 03          	shr    rcx,0x3
    428a:	48 83 ca 01          	or     rdx,0x1
    428e:	48 83 f9 1f          	cmp    rcx,0x1f
    4292:	48 89 50 08          	mov    QWORD PTR [rax+0x8],rdx
    4296:	48 89 3c 38          	mov    QWORD PTR [rax+rdi*1],rdi
    429a:	0f 87 11 08 00 00    	ja     4ab1 <dlmalloc+0x1511>
    42a0:	8b 35 5a 4e 20 00    	mov    esi,DWORD PTR [rip+0x204e5a]        # 209100 <_gm_>
    42a6:	bf 01 00 00 00       	mov    edi,0x1
    42ab:	8d 14 09             	lea    edx,[rcx+rcx*1]
    42ae:	d3 e7                	shl    edi,cl
    42b0:	49 8d 54 d5 48       	lea    rdx,[r13+rdx*8+0x48]
    42b5:	85 fe                	test   esi,edi
    42b7:	0f 85 5f 0b 00 00    	jne    4e1c <dlmalloc+0x187c>
    42bd:	09 fe                	or     esi,edi
    42bf:	48 89 d1             	mov    rcx,rdx
    42c2:	89 35 38 4e 20 00    	mov    DWORD PTR [rip+0x204e38],esi        # 209100 <_gm_>
    42c8:	48 89 42 10          	mov    QWORD PTR [rdx+0x10],rax
    42cc:	48 89 41 18          	mov    QWORD PTR [rcx+0x18],rax
    42d0:	48 89 48 10          	mov    QWORD PTR [rax+0x10],rcx
    42d4:	48 89 50 18          	mov    QWORD PTR [rax+0x18],rdx
    42d8:	e9 be f4 ff ff       	jmp    379b <dlmalloc+0x1fb>
    42dd:	0f 1f 00             	nop    DWORD PTR [rax]
    42e0:	f6 40 18 08          	test   BYTE PTR [rax+0x18],0x8
    42e4:	0f 85 db fc ff ff    	jne    3fc5 <dlmalloc+0xa25>
    42ea:	48 39 ce             	cmp    rsi,rcx
    42ed:	0f 82 d2 fc ff ff    	jb     3fc5 <dlmalloc+0xa25>
    42f3:	48 39 de             	cmp    rsi,rbx
    42f6:	0f 83 c9 fc ff ff    	jae    3fc5 <dlmalloc+0xa25>
    42fc:	4c 01 fa             	add    rdx,r15
    42ff:	4c 03 3d 0a 4e 20 00 	add    r15,QWORD PTR [rip+0x204e0a]        # 209110 <_gm_+0x10>
    4306:	48 89 50 08          	mov    QWORD PTR [rax+0x8],rdx
    430a:	48 8d 46 10          	lea    rax,[rsi+0x10]
    430e:	a8 0f                	test   al,0xf
    4310:	0f 84 90 07 00 00    	je     4aa6 <dlmalloc+0x1506>
    4316:	48 f7 d8             	neg    rax
    4319:	4c 89 ff             	mov    rdi,r15
    431c:	83 e0 0f             	and    eax,0xf
    431f:	48 29 c7             	sub    rdi,rax
    4322:	48 8d 14 06          	lea    rdx,[rsi+rax*1]
    4326:	48 89 f8             	mov    rax,rdi
    4329:	48 89 c1             	mov    rcx,rax
    432c:	48 89 15 f5 4d 20 00 	mov    QWORD PTR [rip+0x204df5],rdx        # 209128 <_gm_+0x28>
    4333:	48 89 05 d6 4d 20 00 	mov    QWORD PTR [rip+0x204dd6],rax        # 209110 <_gm_+0x10>
    433a:	48 83 c9 01          	or     rcx,0x1
    433e:	48 89 4a 08          	mov    QWORD PTR [rdx+0x8],rcx
    4342:	48 8b 15 97 51 20 00 	mov    rdx,QWORD PTR [rip+0x205197]        # 2094e0 <mparams+0x20>
    4349:	4a c7 44 3e 08 50 00 	mov    QWORD PTR [rsi+r15*1+0x8],0x50
    4350:	00 00 
    4352:	48 89 15 d7 4d 20 00 	mov    QWORD PTR [rip+0x204dd7],rdx        # 209130 <_gm_+0x30>
    4359:	e9 24 fe ff ff       	jmp    4182 <dlmalloc+0xbe2>
    435e:	45 31 f6             	xor    r14d,r14d
    4361:	48 8d 15 88 51 20 00 	lea    rdx,[rip+0x205188]        # 2094f0 <malloc_global_mutex>
    4368:	be 01 00 00 00       	mov    esi,0x1
    436d:	0f 1f 00             	nop    DWORD PTR [rax]
    4370:	8b 02                	mov    eax,DWORD PTR [rdx]
    4372:	85 c0                	test   eax,eax
    4374:	75 fa                	jne    4370 <dlmalloc+0xdd0>
    4376:	89 f0                	mov    eax,esi
    4378:	87 05 72 51 20 00    	xchg   DWORD PTR [rip+0x205172],eax        # 2094f0 <malloc_global_mutex>
    437e:	85 c0                	test   eax,eax
    4380:	75 ee                	jne    4370 <dlmalloc+0xdd0>
    4382:	4d 85 f6             	test   r14,r14
    4385:	0f 84 56 f6 ff ff    	je     39e1 <dlmalloc+0x441>
    438b:	48 8b 05 3e 51 20 00 	mov    rax,QWORD PTR [rip+0x20513e]        # 2094d0 <mparams+0x10>
    4392:	4c 8d 78 5f          	lea    r15,[rax+0x5f]
    4396:	4c 2b 3d 73 4d 20 00 	sub    r15,QWORD PTR [rip+0x204d73]        # 209110 <_gm_+0x10>
    439d:	48 f7 d8             	neg    rax
    43a0:	49 01 ef             	add    r15,rbp
    43a3:	49 21 c7             	and    r15,rax
    43a6:	48 b8 fe ff ff ff ff 	movabs rax,0x7ffffffffffffffe
    43ad:	ff ff 7f 
    43b0:	49 39 c7             	cmp    r15,rax
    43b3:	0f 87 9f f6 ff ff    	ja     3a58 <dlmalloc+0x4b8>
    43b9:	4c 89 ff             	mov    rdi,r15
    43bc:	48 89 0c 24          	mov    QWORD PTR [rsp],rcx
    43c0:	e8 6b 17 00 00       	call   5b30 <sbrk>
    43c5:	48 89 c3             	mov    rbx,rax
    43c8:	49 8b 46 08          	mov    rax,QWORD PTR [r14+0x8]
    43cc:	49 03 06             	add    rax,QWORD PTR [r14]
    43cf:	48 8b 0c 24          	mov    rcx,QWORD PTR [rsp]
    43d3:	48 39 c3             	cmp    rbx,rax
    43d6:	75 06                	jne    43de <dlmalloc+0xe3e>
    43d8:	48 83 fb ff          	cmp    rbx,0xffffffffffffffff
    43dc:	75 41                	jne    441f <dlmalloc+0xe7f>
    43de:	48 83 fb ff          	cmp    rbx,0xffffffffffffffff
    43e2:	0f 84 70 f6 ff ff    	je     3a58 <dlmalloc+0x4b8>
    43e8:	48 8d 45 60          	lea    rax,[rbp+0x60]
    43ec:	4c 39 f8             	cmp    rax,r15
    43ef:	76 2e                	jbe    441f <dlmalloc+0xe7f>
    43f1:	48 8b 05 d8 50 20 00 	mov    rax,QWORD PTR [rip+0x2050d8]        # 2094d0 <mparams+0x10>
    43f8:	4d 89 fe             	mov    r14,r15
    43fb:	49 f7 de             	neg    r14
    43fe:	48 8d 54 05 5f       	lea    rdx,[rbp+rax*1+0x5f]
    4403:	48 f7 d8             	neg    rax
    4406:	4c 29 fa             	sub    rdx,r15
    4409:	48 21 c2             	and    rdx,rax
    440c:	48 b8 fe ff ff ff ff 	movabs rax,0x7ffffffffffffffe
    4413:	ff ff 7f 
    4416:	48 39 c2             	cmp    rdx,rax
    4419:	0f 86 13 0a 00 00    	jbe    4e32 <dlmalloc+0x1892>
    441f:	c7 05 c7 50 20 00 00 	mov    DWORD PTR [rip+0x2050c7],0x0        # 2094f0 <malloc_global_mutex>
    4426:	00 00 00 
    4429:	e9 3b fb ff ff       	jmp    3f69 <dlmalloc+0x9c9>
    442e:	48 89 e9             	mov    rcx,rbp
    4431:	48 01 dd             	add    rbp,rbx
    4434:	48 83 c9 03          	or     rcx,0x3
    4438:	48 89 4b 08          	mov    QWORD PTR [rbx+0x8],rcx
    443c:	48 89 d1             	mov    rcx,rdx
    443f:	48 89 7d 00          	mov    QWORD PTR [rbp+0x0],rdi
    4443:	48 83 c9 01          	or     rcx,0x1
    4447:	48 85 f6             	test   rsi,rsi
    444a:	48 89 4d 08          	mov    QWORD PTR [rbp+0x8],rcx
    444e:	48 89 10             	mov    QWORD PTR [rax],rdx
    4451:	74 4c                	je     449f <dlmalloc+0xeff>
    4453:	48 c1 ee 03          	shr    rsi,0x3
    4457:	44 8b 05 a2 4c 20 00 	mov    r8d,DWORD PTR [rip+0x204ca2]        # 209100 <_gm_>
    445e:	41 b9 01 00 00 00    	mov    r9d,0x1
    4464:	48 89 f1             	mov    rcx,rsi
    4467:	8d 3c 36             	lea    edi,[rsi+rsi*1]
    446a:	48 8b 05 af 4c 20 00 	mov    rax,QWORD PTR [rip+0x204caf]        # 209120 <_gm_+0x20>
    4471:	41 d3 e1             	shl    r9d,cl
    4474:	45 85 c8             	test   r8d,r9d
    4477:	49 8d 7c fd 48       	lea    rdi,[r13+rdi*8+0x48]
    447c:	0f 85 40 04 00 00    	jne    48c2 <dlmalloc+0x1322>
    4482:	45 09 c8             	or     r8d,r9d
    4485:	48 89 f9             	mov    rcx,rdi
    4488:	44 89 05 71 4c 20 00 	mov    DWORD PTR [rip+0x204c71],r8d        # 209100 <_gm_>
    448f:	48 89 47 10          	mov    QWORD PTR [rdi+0x10],rax
    4493:	48 89 41 18          	mov    QWORD PTR [rcx+0x18],rax
    4497:	48 89 48 10          	mov    QWORD PTR [rax+0x10],rcx
    449b:	48 89 78 18          	mov    QWORD PTR [rax+0x18],rdi
    449f:	48 89 15 62 4c 20 00 	mov    QWORD PTR [rip+0x204c62],rdx        # 209108 <_gm_+0x8>
    44a6:	48 89 2d 73 4c 20 00 	mov    QWORD PTR [rip+0x204c73],rbp        # 209120 <_gm_+0x20>
    44ad:	e9 e9 f2 ff ff       	jmp    379b <dlmalloc+0x1fb>
    44b2:	48 8b 05 5f 4c 20 00 	mov    rax,QWORD PTR [rip+0x204c5f]        # 209118 <_gm_+0x18>
    44b9:	48 39 d8             	cmp    rax,rbx
    44bc:	77 05                	ja     44c3 <dlmalloc+0xf23>
    44be:	48 85 c0             	test   rax,rax
    44c1:	75 07                	jne    44ca <dlmalloc+0xf2a>
    44c3:	48 89 1d 4e 4c 20 00 	mov    QWORD PTR [rip+0x204c4e],rbx        # 209118 <_gm_+0x18>
    44ca:	48 8b 05 ef 4f 20 00 	mov    rax,QWORD PTR [rip+0x204fef]        # 2094c0 <mparams>
    44d1:	48 89 1d a0 4f 20 00 	mov    QWORD PTR [rip+0x204fa0],rbx        # 209478 <_gm_+0x378>
    44d8:	4c 89 3d a1 4f 20 00 	mov    QWORD PTR [rip+0x204fa1],r15        # 209480 <_gm_+0x380>
    44df:	c7 05 a7 4f 20 00 00 	mov    DWORD PTR [rip+0x204fa7],0x0        # 209490 <_gm_+0x390>
    44e6:	00 00 00 
    44e9:	48 c7 05 44 4c 20 00 	mov    QWORD PTR [rip+0x204c44],0xffffffffffffffff        # 209138 <_gm_+0x38>
    44f0:	ff ff ff ff 
    44f4:	48 89 05 45 4c 20 00 	mov    QWORD PTR [rip+0x204c45],rax        # 209140 <_gm_+0x40>
    44fb:	48 8d 05 46 4c 20 00 	lea    rax,[rip+0x204c46]        # 209148 <_gm_+0x48>
    4502:	48 8d 90 00 02 00 00 	lea    rdx,[rax+0x200]
    4509:	0f 1f 80 00 00 00 00 	nop    DWORD PTR [rax+0x0]
    4510:	48 89 40 18          	mov    QWORD PTR [rax+0x18],rax
    4514:	48 89 40 10          	mov    QWORD PTR [rax+0x10],rax
    4518:	48 83 c0 10          	add    rax,0x10
    451c:	48 39 c2             	cmp    rdx,rax
    451f:	75 ef                	jne    4510 <dlmalloc+0xf70>
    4521:	48 8d 43 10          	lea    rax,[rbx+0x10]
    4525:	49 83 ef 50          	sub    r15,0x50
    4529:	a8 0f                	test   al,0xf
    452b:	0f 84 6f 02 00 00    	je     47a0 <dlmalloc+0x1200>
    4531:	48 f7 d8             	neg    rax
    4534:	4c 89 fe             	mov    rsi,r15
    4537:	83 e0 0f             	and    eax,0xf
    453a:	48 29 c6             	sub    rsi,rax
    453d:	48 8d 14 03          	lea    rdx,[rbx+rax*1]
    4541:	48 89 f0             	mov    rax,rsi
    4544:	48 89 c1             	mov    rcx,rax
    4547:	48 89 15 da 4b 20 00 	mov    QWORD PTR [rip+0x204bda],rdx        # 209128 <_gm_+0x28>
    454e:	48 89 05 bb 4b 20 00 	mov    QWORD PTR [rip+0x204bbb],rax        # 209110 <_gm_+0x10>
    4555:	48 83 c9 01          	or     rcx,0x1
    4559:	48 89 4a 08          	mov    QWORD PTR [rdx+0x8],rcx
    455d:	48 8b 15 7c 4f 20 00 	mov    rdx,QWORD PTR [rip+0x204f7c]        # 2094e0 <mparams+0x20>
    4564:	4a c7 44 3b 08 50 00 	mov    QWORD PTR [rbx+r15*1+0x8],0x50
    456b:	00 00 
    456d:	48 89 15 bc 4b 20 00 	mov    QWORD PTR [rip+0x204bbc],rdx        # 209130 <_gm_+0x30>
    4574:	e9 09 fc ff ff       	jmp    4182 <dlmalloc+0xbe2>
    4579:	4d 85 db             	test   r11,r11
    457c:	4c 89 ca             	mov    rdx,r9
    457f:	4c 89 d8             	mov    rax,r11
    4582:	0f 85 db f5 ff ff    	jne    3b63 <dlmalloc+0x5c3>
    4588:	e9 fe f5 ff ff       	jmp    3b8b <dlmalloc+0x5eb>
    458d:	0f bd c0             	bsr    eax,eax
    4590:	b9 26 00 00 00       	mov    ecx,0x26
    4595:	48 89 ea             	mov    rdx,rbp
    4598:	83 f0 1f             	xor    eax,0x1f
    459b:	29 c1                	sub    ecx,eax
    459d:	48 d3 ea             	shr    rdx,cl
    45a0:	b9 1f 00 00 00       	mov    ecx,0x1f
    45a5:	83 e2 01             	and    edx,0x1
    45a8:	29 c1                	sub    ecx,eax
    45aa:	8d 04 4a             	lea    eax,[rdx+rcx*2]
    45ad:	49 89 c2             	mov    r10,rax
    45b0:	49 8b 84 c5 58 02 00 	mov    rax,QWORD PTR [r13+rax*8+0x258]
    45b7:	00 
    45b8:	48 85 c0             	test   rax,rax
    45bb:	0f 84 67 f5 ff ff    	je     3b28 <dlmalloc+0x588>
    45c1:	41 83 fa 1f          	cmp    r10d,0x1f
    45c5:	48 89 e9             	mov    rcx,rbp
    45c8:	0f 84 f8 f4 ff ff    	je     3ac6 <dlmalloc+0x526>
    45ce:	44 89 d2             	mov    edx,r10d
    45d1:	b9 39 00 00 00       	mov    ecx,0x39
    45d6:	d1 ea                	shr    edx,1
    45d8:	29 d1                	sub    ecx,edx
    45da:	e9 de f4 ff ff       	jmp    3abd <dlmalloc+0x51d>
    45df:	4c 89 c8             	mov    rax,r9
    45e2:	49 89 d8             	mov    r8,rbx
    45e5:	e9 8e fa ff ff       	jmp    4078 <dlmalloc+0xad8>
    45ea:	48 89 c3             	mov    rbx,rax
    45ed:	e9 71 f5 ff ff       	jmp    3b63 <dlmalloc+0x5c3>
    45f2:	48 89 e8             	mov    rax,rbp
    45f5:	48 83 c8 03          	or     rax,0x3
    45f9:	48 89 43 08          	mov    QWORD PTR [rbx+0x8],rax
    45fd:	49 89 0a             	mov    QWORD PTR [r10],rcx
    4600:	48 89 d1             	mov    rcx,rdx
    4603:	48 89 d0             	mov    rax,rdx
    4606:	48 c1 e9 03          	shr    rcx,0x3
    460a:	48 83 c8 01          	or     rax,0x1
    460e:	48 83 f9 1f          	cmp    rcx,0x1f
    4612:	49 89 42 08          	mov    QWORD PTR [r10+0x8],rax
    4616:	49 89 14 12          	mov    QWORD PTR [r10+rdx*1],rdx
    461a:	0f 87 e0 01 00 00    	ja     4800 <dlmalloc+0x1260>
    4620:	8b 15 da 4a 20 00    	mov    edx,DWORD PTR [rip+0x204ada]        # 209100 <_gm_>
    4626:	bf 01 00 00 00       	mov    edi,0x1
    462b:	8d 04 09             	lea    eax,[rcx+rcx*1]
    462e:	d3 e7                	shl    edi,cl
    4630:	49 8d 44 c5 48       	lea    rax,[r13+rax*8+0x48]
    4635:	85 fa                	test   edx,edi
    4637:	0f 85 e6 02 00 00    	jne    4923 <dlmalloc+0x1383>
    463d:	09 fa                	or     edx,edi
    463f:	89 15 bb 4a 20 00    	mov    DWORD PTR [rip+0x204abb],edx        # 209100 <_gm_>
    4645:	48 89 c2             	mov    rdx,rax
    4648:	4c 89 50 10          	mov    QWORD PTR [rax+0x10],r10
    464c:	4c 89 52 18          	mov    QWORD PTR [rdx+0x18],r10
    4650:	49 89 52 10          	mov    QWORD PTR [r10+0x10],rdx
    4654:	49 89 42 18          	mov    QWORD PTR [r10+0x18],rax
    4658:	e9 3f f6 ff ff       	jmp    3c9c <dlmalloc+0x6fc>
    465d:	48 8b 4b 28          	mov    rcx,QWORD PTR [rbx+0x28]
    4661:	48 8d 7b 28          	lea    rdi,[rbx+0x28]
    4665:	48 85 c9             	test   rcx,rcx
    4668:	0f 84 9f 02 00 00    	je     490d <dlmalloc+0x136d>
    466e:	66 90                	xchg   ax,ax
    4670:	48 89 c8             	mov    rax,rcx
    4673:	48 8b 49 28          	mov    rcx,QWORD PTR [rcx+0x28]
    4677:	49 89 f9             	mov    r9,rdi
    467a:	48 8d 78 28          	lea    rdi,[rax+0x28]
    467e:	48 85 c9             	test   rcx,rcx
    4681:	75 ed                	jne    4670 <dlmalloc+0x10d0>
    4683:	48 8b 48 20          	mov    rcx,QWORD PTR [rax+0x20]
    4687:	48 8d 78 20          	lea    rdi,[rax+0x20]
    468b:	48 85 c9             	test   rcx,rcx
    468e:	75 e0                	jne    4670 <dlmalloc+0x10d0>
    4690:	4d 39 cb             	cmp    r11,r9
    4693:	0f 87 47 f6 ff ff    	ja     3ce0 <dlmalloc+0x740>
    4699:	49 c7 01 00 00 00 00 	mov    QWORD PTR [r9],0x0
    46a0:	e9 55 f5 ff ff       	jmp    3bfa <dlmalloc+0x65a>
    46a5:	48 89 f8             	mov    rax,rdi
    46a8:	48 c1 e8 08          	shr    rax,0x8
    46ac:	85 c0                	test   eax,eax
    46ae:	0f 84 e4 01 00 00    	je     4898 <dlmalloc+0x12f8>
    46b4:	3d ff ff 00 00       	cmp    eax,0xffff
    46b9:	0f 87 ab 03 00 00    	ja     4a6a <dlmalloc+0x14ca>
    46bf:	0f bd c0             	bsr    eax,eax
    46c2:	b9 26 00 00 00       	mov    ecx,0x26
    46c7:	48 89 fa             	mov    rdx,rdi
    46ca:	83 f0 1f             	xor    eax,0x1f
    46cd:	29 c1                	sub    ecx,eax
    46cf:	48 d3 ea             	shr    rdx,cl
    46d2:	b9 1f 00 00 00       	mov    ecx,0x1f
    46d7:	29 c1                	sub    ecx,eax
    46d9:	83 e2 01             	and    edx,0x1
    46dc:	b8 01 00 00 00       	mov    eax,0x1
    46e1:	8d 14 4a             	lea    edx,[rdx+rcx*2]
    46e4:	48 89 d1             	mov    rcx,rdx
    46e7:	4c 8d 04 d5 58 02 00 	lea    r8,[rdx*8+0x258]
    46ee:	00 
    46ef:	d3 e0                	shl    eax,cl
    46f1:	44 8b 0d 0c 4a 20 00 	mov    r9d,DWORD PTR [rip+0x204a0c]        # 209104 <_gm_+0x4>
    46f8:	89 4e 38             	mov    DWORD PTR [rsi+0x38],ecx
    46fb:	48 c7 46 28 00 00 00 	mov    QWORD PTR [rsi+0x28],0x0
    4702:	00 
    4703:	48 c7 46 20 00 00 00 	mov    QWORD PTR [rsi+0x20],0x0
    470a:	00 
    470b:	44 85 c8             	test   eax,r9d
    470e:	0f 84 c4 01 00 00    	je     48d8 <dlmalloc+0x1338>
    4714:	83 f9 1f             	cmp    ecx,0x1f
    4717:	49 8b 94 d5 58 02 00 	mov    rdx,QWORD PTR [r13+rdx*8+0x258]
    471e:	00 
    471f:	49 89 f8             	mov    r8,rdi
    4722:	74 2e                	je     4752 <dlmalloc+0x11b2>
    4724:	d1 e9                	shr    ecx,1
    4726:	b8 39 00 00 00       	mov    eax,0x39
    472b:	29 c8                	sub    eax,ecx
    472d:	89 c1                	mov    ecx,eax
    472f:	49 d3 e0             	shl    r8,cl
    4732:	eb 1e                	jmp    4752 <dlmalloc+0x11b2>
    4734:	4c 89 c0             	mov    rax,r8
    4737:	4d 01 c0             	add    r8,r8
    473a:	48 c1 e8 3f          	shr    rax,0x3f
    473e:	48 83 c0 04          	add    rax,0x4
    4742:	48 8b 0c c2          	mov    rcx,QWORD PTR [rdx+rax*8]
    4746:	48 85 c9             	test   rcx,rcx
    4749:	0f 84 ee 02 00 00    	je     4a3d <dlmalloc+0x149d>
    474f:	48 89 ca             	mov    rdx,rcx
    4752:	48 8b 42 08          	mov    rax,QWORD PTR [rdx+0x8]
    4756:	48 83 e0 f8          	and    rax,0xfffffffffffffff8
    475a:	48 39 c7             	cmp    rdi,rax
    475d:	75 d5                	jne    4734 <dlmalloc+0x1194>
    475f:	48 8b 42 10          	mov    rax,QWORD PTR [rdx+0x10]
    4763:	48 8b 0d ae 49 20 00 	mov    rcx,QWORD PTR [rip+0x2049ae]        # 209118 <_gm_+0x18>
    476a:	48 39 c8             	cmp    rax,rcx
    476d:	0f 82 6d f5 ff ff    	jb     3ce0 <dlmalloc+0x740>
    4773:	48 39 ca             	cmp    rdx,rcx
    4776:	0f 82 64 f5 ff ff    	jb     3ce0 <dlmalloc+0x740>
    477c:	48 89 70 18          	mov    QWORD PTR [rax+0x18],rsi
    4780:	48 89 72 10          	mov    QWORD PTR [rdx+0x10],rsi
    4784:	48 89 46 10          	mov    QWORD PTR [rsi+0x10],rax
    4788:	48 89 56 18          	mov    QWORD PTR [rsi+0x18],rdx
    478c:	48 c7 46 30 00 00 00 	mov    QWORD PTR [rsi+0x30],0x0
    4793:	00 
    4794:	48 8b 05 75 49 20 00 	mov    rax,QWORD PTR [rip+0x204975]        # 209110 <_gm_+0x10>
    479b:	e9 e2 f9 ff ff       	jmp    4182 <dlmalloc+0xbe2>
    47a0:	4c 89 f8             	mov    rax,r15
    47a3:	48 89 da             	mov    rdx,rbx
    47a6:	e9 99 fd ff ff       	jmp    4544 <dlmalloc+0xfa4>
    47ab:	4c 89 ca             	mov    rdx,r9
    47ae:	b8 fe ff ff ff       	mov    eax,0xfffffffe
    47b3:	e9 7d f3 ff ff       	jmp    3b35 <dlmalloc+0x595>
    47b8:	48 8b 05 51 49 20 00 	mov    rax,QWORD PTR [rip+0x204951]        # 209110 <_gm_+0x10>
    47bf:	e9 be f9 ff ff       	jmp    4182 <dlmalloc+0xbe2>
    47c4:	b8 01 00 00 00       	mov    eax,0x1
    47c9:	87 05 21 4d 20 00    	xchg   DWORD PTR [rip+0x204d21],eax        # 2094f0 <malloc_global_mutex>
    47cf:	85 c0                	test   eax,eax
    47d1:	0f 84 b4 fb ff ff    	je     438b <dlmalloc+0xdeb>
    47d7:	e9 85 fb ff ff       	jmp    4361 <dlmalloc+0xdc1>
    47dc:	48 85 c0             	test   rax,rax
    47df:	49 89 44 fd 08       	mov    QWORD PTR [r13+rdi*8+0x8],rax
    47e4:	0f 85 46 f4 ff ff    	jne    3c30 <dlmalloc+0x690>
    47ea:	b8 fe ff ff ff       	mov    eax,0xfffffffe
    47ef:	d3 c0                	rol    eax,cl
    47f1:	41 21 c0             	and    r8d,eax
    47f4:	44 89 05 09 49 20 00 	mov    DWORD PTR [rip+0x204909],r8d        # 209104 <_gm_+0x4>
    47fb:	e9 6d f4 ff ff       	jmp    3c6d <dlmalloc+0x6cd>
    4800:	48 89 d0             	mov    rax,rdx
    4803:	48 c1 e8 08          	shr    rax,0x8
    4807:	85 c0                	test   eax,eax
    4809:	0f 84 af 01 00 00    	je     49be <dlmalloc+0x141e>
    480f:	3d ff ff 00 00       	cmp    eax,0xffff
    4814:	0f 87 b4 03 00 00    	ja     4bce <dlmalloc+0x162e>
    481a:	0f bd c0             	bsr    eax,eax
    481d:	b9 26 00 00 00       	mov    ecx,0x26
    4822:	48 89 d7             	mov    rdi,rdx
    4825:	83 f0 1f             	xor    eax,0x1f
    4828:	29 c1                	sub    ecx,eax
    482a:	48 d3 ef             	shr    rdi,cl
    482d:	48 89 f9             	mov    rcx,rdi
    4830:	bf 1f 00 00 00       	mov    edi,0x1f
    4835:	83 e1 01             	and    ecx,0x1
    4838:	29 c7                	sub    edi,eax
    483a:	b8 01 00 00 00       	mov    eax,0x1
    483f:	8d 3c 79             	lea    edi,[rcx+rdi*2]
    4842:	48 89 f9             	mov    rcx,rdi
    4845:	4c 8d 04 fd 58 02 00 	lea    r8,[rdi*8+0x258]
    484c:	00 
    484d:	d3 e0                	shl    eax,cl
    484f:	44 8b 0d ae 48 20 00 	mov    r9d,DWORD PTR [rip+0x2048ae]        # 209104 <_gm_+0x4>
    4856:	41 89 4a 38          	mov    DWORD PTR [r10+0x38],ecx
    485a:	49 c7 42 28 00 00 00 	mov    QWORD PTR [r10+0x28],0x0
    4861:	00 
    4862:	49 c7 42 20 00 00 00 	mov    QWORD PTR [r10+0x20],0x0
    4869:	00 
    486a:	41 85 c1             	test   r9d,eax
    486d:	0f 85 c2 00 00 00    	jne    4935 <dlmalloc+0x1395>
    4873:	44 09 c8             	or     eax,r9d
    4876:	4d 01 e8             	add    r8,r13
    4879:	4d 89 94 fd 58 02 00 	mov    QWORD PTR [r13+rdi*8+0x258],r10
    4880:	00 
    4881:	89 05 7d 48 20 00    	mov    DWORD PTR [rip+0x20487d],eax        # 209104 <_gm_+0x4>
    4887:	4d 89 42 30          	mov    QWORD PTR [r10+0x30],r8
    488b:	4d 89 52 18          	mov    QWORD PTR [r10+0x18],r10
    488f:	4d 89 52 10          	mov    QWORD PTR [r10+0x10],r10
    4893:	e9 04 f4 ff ff       	jmp    3c9c <dlmalloc+0x6fc>
    4898:	41 b8 58 02 00 00    	mov    r8d,0x258
    489e:	b8 01 00 00 00       	mov    eax,0x1
    48a3:	31 c9                	xor    ecx,ecx
    48a5:	31 d2                	xor    edx,edx
    48a7:	e9 45 fe ff ff       	jmp    46f1 <dlmalloc+0x1151>
    48ac:	48 8b 47 10          	mov    rax,QWORD PTR [rdi+0x10]
    48b0:	48 3b 05 61 48 20 00 	cmp    rax,QWORD PTR [rip+0x204861]        # 209118 <_gm_+0x18>
    48b7:	0f 83 ae f8 ff ff    	jae    416b <dlmalloc+0xbcb>
    48bd:	e9 1e f4 ff ff       	jmp    3ce0 <dlmalloc+0x740>
    48c2:	48 8b 4f 10          	mov    rcx,QWORD PTR [rdi+0x10]
    48c6:	48 3b 0d 4b 48 20 00 	cmp    rcx,QWORD PTR [rip+0x20484b]        # 209118 <_gm_+0x18>
    48cd:	0f 83 bc fb ff ff    	jae    448f <dlmalloc+0xeef>
    48d3:	e9 08 f4 ff ff       	jmp    3ce0 <dlmalloc+0x740>
    48d8:	44 09 c8             	or     eax,r9d
    48db:	4d 01 e8             	add    r8,r13
    48de:	49 89 b4 d5 58 02 00 	mov    QWORD PTR [r13+rdx*8+0x258],rsi
    48e5:	00 
    48e6:	89 05 18 48 20 00    	mov    DWORD PTR [rip+0x204818],eax        # 209104 <_gm_+0x4>
    48ec:	4c 89 46 30          	mov    QWORD PTR [rsi+0x30],r8
    48f0:	48 89 76 18          	mov    QWORD PTR [rsi+0x18],rsi
    48f4:	48 89 76 10          	mov    QWORD PTR [rsi+0x10],rsi
    48f8:	48 8b 05 11 48 20 00 	mov    rax,QWORD PTR [rip+0x204811]        # 209110 <_gm_+0x10>
    48ff:	e9 7e f8 ff ff       	jmp    4182 <dlmalloc+0xbe2>
    4904:	49 89 46 20          	mov    QWORD PTR [r14+0x20],rax
    4908:	e9 1e f3 ff ff       	jmp    3c2b <dlmalloc+0x68b>
    490d:	48 8b 4b 20          	mov    rcx,QWORD PTR [rbx+0x20]
    4911:	48 85 c9             	test   rcx,rcx
    4914:	0f 84 98 04 00 00    	je     4db2 <dlmalloc+0x1812>
    491a:	48 8d 7b 20          	lea    rdi,[rbx+0x20]
    491e:	e9 4d fd ff ff       	jmp    4670 <dlmalloc+0x10d0>
    4923:	48 8b 50 10          	mov    rdx,QWORD PTR [rax+0x10]
    4927:	49 39 d3             	cmp    r11,rdx
    492a:	0f 86 18 fd ff ff    	jbe    4648 <dlmalloc+0x10a8>
    4930:	e9 ab f3 ff ff       	jmp    3ce0 <dlmalloc+0x740>
    4935:	83 f9 1f             	cmp    ecx,0x1f
    4938:	49 8b 84 fd 58 02 00 	mov    rax,QWORD PTR [r13+rdi*8+0x258]
    493f:	00 
    4940:	48 89 d7             	mov    rdi,rdx
    4943:	74 39                	je     497e <dlmalloc+0x13de>
    4945:	d1 e9                	shr    ecx,1
    4947:	bf 39 00 00 00       	mov    edi,0x39
    494c:	29 cf                	sub    edi,ecx
    494e:	89 f9                	mov    ecx,edi
    4950:	48 89 d7             	mov    rdi,rdx
    4953:	48 d3 e7             	shl    rdi,cl
    4956:	eb 26                	jmp    497e <dlmalloc+0x13de>
    4958:	0f 1f 84 00 00 00 00 	nop    DWORD PTR [rax+rax*1+0x0]
    495f:	00 
    4960:	48 89 f9             	mov    rcx,rdi
    4963:	48 01 ff             	add    rdi,rdi
    4966:	48 c1 e9 3f          	shr    rcx,0x3f
    496a:	48 83 c1 04          	add    rcx,0x4
    496e:	4c 8b 04 c8          	mov    r8,QWORD PTR [rax+rcx*8]
    4972:	4d 85 c0             	test   r8,r8
    4975:	0f 84 6d 02 00 00    	je     4be8 <dlmalloc+0x1648>
    497b:	4c 89 c0             	mov    rax,r8
    497e:	48 8b 48 08          	mov    rcx,QWORD PTR [rax+0x8]
    4982:	48 83 e1 f8          	and    rcx,0xfffffffffffffff8
    4986:	48 39 d1             	cmp    rcx,rdx
    4989:	75 d5                	jne    4960 <dlmalloc+0x13c0>
    498b:	48 8b 50 10          	mov    rdx,QWORD PTR [rax+0x10]
    498f:	49 39 d3             	cmp    r11,rdx
    4992:	0f 87 48 f3 ff ff    	ja     3ce0 <dlmalloc+0x740>
    4998:	49 39 c3             	cmp    r11,rax
    499b:	0f 87 3f f3 ff ff    	ja     3ce0 <dlmalloc+0x740>
    49a1:	4c 89 52 18          	mov    QWORD PTR [rdx+0x18],r10
    49a5:	4c 89 50 10          	mov    QWORD PTR [rax+0x10],r10
    49a9:	49 89 52 10          	mov    QWORD PTR [r10+0x10],rdx
    49ad:	49 89 42 18          	mov    QWORD PTR [r10+0x18],rax
    49b1:	49 c7 42 30 00 00 00 	mov    QWORD PTR [r10+0x30],0x0
    49b8:	00 
    49b9:	e9 de f2 ff ff       	jmp    3c9c <dlmalloc+0x6fc>
    49be:	41 b8 58 02 00 00    	mov    r8d,0x258
    49c4:	b8 01 00 00 00       	mov    eax,0x1
    49c9:	31 c9                	xor    ecx,ecx
    49cb:	31 ff                	xor    edi,edi
    49cd:	e9 7d fe ff ff       	jmp    484f <dlmalloc+0x12af>
    49d2:	48 8d 44 3d 00       	lea    rax,[rbp+rdi*1+0x0]
    49d7:	48 89 c2             	mov    rdx,rax
    49da:	48 01 d8             	add    rax,rbx
    49dd:	48 83 ca 03          	or     rdx,0x3
    49e1:	48 89 53 08          	mov    QWORD PTR [rbx+0x8],rdx
    49e5:	48 83 48 08 01       	or     QWORD PTR [rax+0x8],0x1
    49ea:	48 89 08             	mov    QWORD PTR [rax],rcx
    49ed:	e9 a9 f4 ff ff       	jmp    3e9b <dlmalloc+0x8fb>
    49f2:	48 8b 4b 28          	mov    rcx,QWORD PTR [rbx+0x28]
    49f6:	4c 8d 4b 28          	lea    r9,[rbx+0x28]
    49fa:	48 85 c9             	test   rcx,rcx
    49fd:	0f 84 96 03 00 00    	je     4d99 <dlmalloc+0x17f9>
    4a03:	0f 1f 44 00 00       	nop    DWORD PTR [rax+rax*1+0x0]
    4a08:	48 89 c8             	mov    rax,rcx
    4a0b:	48 8b 49 28          	mov    rcx,QWORD PTR [rcx+0x28]
    4a0f:	4d 89 ca             	mov    r10,r9
    4a12:	4c 8d 48 28          	lea    r9,[rax+0x28]
    4a16:	48 85 c9             	test   rcx,rcx
    4a19:	75 ed                	jne    4a08 <dlmalloc+0x1468>
    4a1b:	48 8b 48 20          	mov    rcx,QWORD PTR [rax+0x20]
    4a1f:	4c 8d 48 20          	lea    r9,[rax+0x20]
    4a23:	48 85 c9             	test   rcx,rcx
    4a26:	75 e0                	jne    4a08 <dlmalloc+0x1468>
    4a28:	4d 39 d6             	cmp    r14,r10
    4a2b:	0f 87 af f2 ff ff    	ja     3ce0 <dlmalloc+0x740>
    4a31:	49 c7 02 00 00 00 00 	mov    QWORD PTR [r10],0x0
    4a38:	e9 5d f3 ff ff       	jmp    3d9a <dlmalloc+0x7fa>
    4a3d:	48 8d 0c c2          	lea    rcx,[rdx+rax*8]
    4a41:	48 39 0d d0 46 20 00 	cmp    QWORD PTR [rip+0x2046d0],rcx        # 209118 <_gm_+0x18>
    4a48:	0f 87 92 f2 ff ff    	ja     3ce0 <dlmalloc+0x740>
    4a4e:	48 89 34 c2          	mov    QWORD PTR [rdx+rax*8],rsi
    4a52:	48 89 56 30          	mov    QWORD PTR [rsi+0x30],rdx
    4a56:	48 89 76 18          	mov    QWORD PTR [rsi+0x18],rsi
    4a5a:	48 89 76 10          	mov    QWORD PTR [rsi+0x10],rsi
    4a5e:	48 8b 05 ab 46 20 00 	mov    rax,QWORD PTR [rip+0x2046ab]        # 209110 <_gm_+0x10>
    4a65:	e9 18 f7 ff ff       	jmp    4182 <dlmalloc+0xbe2>
    4a6a:	41 b8 50 03 00 00    	mov    r8d,0x350
    4a70:	b8 00 00 00 80       	mov    eax,0x80000000
    4a75:	b9 1f 00 00 00       	mov    ecx,0x1f
    4a7a:	ba 1f 00 00 00       	mov    edx,0x1f
    4a7f:	e9 6d fc ff ff       	jmp    46f1 <dlmalloc+0x1151>
    4a84:	48 03 3d 85 46 20 00 	add    rdi,QWORD PTR [rip+0x204685]        # 209110 <_gm_+0x10>
    4a8b:	48 89 05 96 46 20 00 	mov    QWORD PTR [rip+0x204696],rax        # 209128 <_gm_+0x28>
    4a92:	48 89 3d 77 46 20 00 	mov    QWORD PTR [rip+0x204677],rdi        # 209110 <_gm_+0x10>
    4a99:	48 83 cf 01          	or     rdi,0x1
    4a9d:	48 89 78 08          	mov    QWORD PTR [rax+0x8],rdi
    4aa1:	e9 f5 ec ff ff       	jmp    379b <dlmalloc+0x1fb>
    4aa6:	4c 89 f8             	mov    rax,r15
    4aa9:	48 89 f2             	mov    rdx,rsi
    4aac:	e9 78 f8 ff ff       	jmp    4329 <dlmalloc+0xd89>
    4ab1:	48 89 fa             	mov    rdx,rdi
    4ab4:	48 c1 ea 08          	shr    rdx,0x8
    4ab8:	85 d2                	test   edx,edx
    4aba:	0f 84 c5 02 00 00    	je     4d85 <dlmalloc+0x17e5>
    4ac0:	81 fa ff ff 00 00    	cmp    edx,0xffff
    4ac6:	0f 87 e5 03 00 00    	ja     4eb1 <dlmalloc+0x1911>
    4acc:	0f bd d2             	bsr    edx,edx
    4acf:	b9 26 00 00 00       	mov    ecx,0x26
    4ad4:	48 89 fe             	mov    rsi,rdi
    4ad7:	83 f2 1f             	xor    edx,0x1f
    4ada:	29 d1                	sub    ecx,edx
    4adc:	48 d3 ee             	shr    rsi,cl
    4adf:	48 89 f1             	mov    rcx,rsi
    4ae2:	be 1f 00 00 00       	mov    esi,0x1f
    4ae7:	83 e1 01             	and    ecx,0x1
    4aea:	29 d6                	sub    esi,edx
    4aec:	ba 01 00 00 00       	mov    edx,0x1
    4af1:	8d 34 71             	lea    esi,[rcx+rsi*2]
    4af4:	89 f1                	mov    ecx,esi
    4af6:	d3 e2                	shl    edx,cl
    4af8:	89 f1                	mov    ecx,esi
    4afa:	4c 8d 04 cd 58 02 00 	lea    r8,[rcx*8+0x258]
    4b01:	00 
    4b02:	44 8b 0d fb 45 20 00 	mov    r9d,DWORD PTR [rip+0x2045fb]        # 209104 <_gm_+0x4>
    4b09:	89 70 38             	mov    DWORD PTR [rax+0x38],esi
    4b0c:	48 c7 40 28 00 00 00 	mov    QWORD PTR [rax+0x28],0x0
    4b13:	00 
    4b14:	48 c7 40 20 00 00 00 	mov    QWORD PTR [rax+0x20],0x0
    4b1b:	00 
    4b1c:	41 85 d1             	test   r9d,edx
    4b1f:	0f 84 3b 02 00 00    	je     4d60 <dlmalloc+0x17c0>
    4b25:	49 8b 94 cd 58 02 00 	mov    rdx,QWORD PTR [r13+rcx*8+0x258]
    4b2c:	00 
    4b2d:	31 c9                	xor    ecx,ecx
    4b2f:	83 fe 1f             	cmp    esi,0x1f
    4b32:	74 09                	je     4b3d <dlmalloc+0x159d>
    4b34:	d1 ee                	shr    esi,1
    4b36:	b9 39 00 00 00       	mov    ecx,0x39
    4b3b:	29 f1                	sub    ecx,esi
    4b3d:	48 89 fe             	mov    rsi,rdi
    4b40:	48 d3 e6             	shl    rsi,cl
    4b43:	eb 1e                	jmp    4b63 <dlmalloc+0x15c3>
    4b45:	48 89 f1             	mov    rcx,rsi
    4b48:	48 01 f6             	add    rsi,rsi
    4b4b:	48 c1 e9 3f          	shr    rcx,0x3f
    4b4f:	48 83 c1 04          	add    rcx,0x4
    4b53:	4c 8b 04 ca          	mov    r8,QWORD PTR [rdx+rcx*8]
    4b57:	4d 85 c0             	test   r8,r8
    4b5a:	0f 84 2b 03 00 00    	je     4e8b <dlmalloc+0x18eb>
    4b60:	4c 89 c2             	mov    rdx,r8
    4b63:	48 8b 4a 08          	mov    rcx,QWORD PTR [rdx+0x8]
    4b67:	48 83 e1 f8          	and    rcx,0xfffffffffffffff8
    4b6b:	48 39 cf             	cmp    rdi,rcx
    4b6e:	75 d5                	jne    4b45 <dlmalloc+0x15a5>
    4b70:	48 8b 4a 10          	mov    rcx,QWORD PTR [rdx+0x10]
    4b74:	48 8b 35 9d 45 20 00 	mov    rsi,QWORD PTR [rip+0x20459d]        # 209118 <_gm_+0x18>
    4b7b:	48 39 f1             	cmp    rcx,rsi
    4b7e:	0f 82 5c f1 ff ff    	jb     3ce0 <dlmalloc+0x740>
    4b84:	48 39 f2             	cmp    rdx,rsi
    4b87:	0f 82 53 f1 ff ff    	jb     3ce0 <dlmalloc+0x740>
    4b8d:	48 89 41 18          	mov    QWORD PTR [rcx+0x18],rax
    4b91:	48 89 42 10          	mov    QWORD PTR [rdx+0x10],rax
    4b95:	48 89 48 10          	mov    QWORD PTR [rax+0x10],rcx
    4b99:	48 89 50 18          	mov    QWORD PTR [rax+0x18],rdx
    4b9d:	48 c7 40 30 00 00 00 	mov    QWORD PTR [rax+0x30],0x0
    4ba4:	00 
    4ba5:	e9 f1 eb ff ff       	jmp    379b <dlmalloc+0x1fb>
    4baa:	48 85 c0             	test   rax,rax
    4bad:	4b 89 44 cd 08       	mov    QWORD PTR [r13+r9*8+0x8],rax
    4bb2:	0f 85 19 f2 ff ff    	jne    3dd1 <dlmalloc+0x831>
    4bb8:	b8 fe ff ff ff       	mov    eax,0xfffffffe
    4bbd:	d3 c0                	rol    eax,cl
    4bbf:	41 21 c0             	and    r8d,eax
    4bc2:	44 89 05 3b 45 20 00 	mov    DWORD PTR [rip+0x20453b],r8d        # 209104 <_gm_+0x4>
    4bc9:	e9 44 f2 ff ff       	jmp    3e12 <dlmalloc+0x872>
    4bce:	41 b8 50 03 00 00    	mov    r8d,0x350
    4bd4:	b8 00 00 00 80       	mov    eax,0x80000000
    4bd9:	b9 1f 00 00 00       	mov    ecx,0x1f
    4bde:	bf 1f 00 00 00       	mov    edi,0x1f
    4be3:	e9 67 fc ff ff       	jmp    484f <dlmalloc+0x12af>
    4be8:	48 8d 14 c8          	lea    rdx,[rax+rcx*8]
    4bec:	49 39 d3             	cmp    r11,rdx
    4bef:	0f 87 eb f0 ff ff    	ja     3ce0 <dlmalloc+0x740>
    4bf5:	4c 89 14 c8          	mov    QWORD PTR [rax+rcx*8],r10
    4bf9:	49 89 42 30          	mov    QWORD PTR [r10+0x30],rax
    4bfd:	4d 89 52 18          	mov    QWORD PTR [r10+0x18],r10
    4c01:	4d 89 52 10          	mov    QWORD PTR [r10+0x10],r10
    4c05:	e9 92 f0 ff ff       	jmp    3c9c <dlmalloc+0x6fc>
    4c0a:	48 03 3d f7 44 20 00 	add    rdi,QWORD PTR [rip+0x2044f7]        # 209108 <_gm_+0x8>
    4c11:	48 89 05 08 45 20 00 	mov    QWORD PTR [rip+0x204508],rax        # 209120 <_gm_+0x20>
    4c18:	48 89 fa             	mov    rdx,rdi
    4c1b:	48 89 3d e6 44 20 00 	mov    QWORD PTR [rip+0x2044e6],rdi        # 209108 <_gm_+0x8>
    4c22:	48 83 ca 01          	or     rdx,0x1
    4c26:	48 89 50 08          	mov    QWORD PTR [rax+0x8],rdx
    4c2a:	48 89 3c 38          	mov    QWORD PTR [rax+rdi*1],rdi
    4c2e:	e9 68 eb ff ff       	jmp    379b <dlmalloc+0x1fb>
    4c33:	48 83 e1 f8          	and    rcx,0xfffffffffffffff8
    4c37:	48 8b 72 18          	mov    rsi,QWORD PTR [rdx+0x18]
    4c3b:	49 89 c8             	mov    r8,rcx
    4c3e:	48 c1 e9 03          	shr    rcx,0x3
    4c42:	48 83 f9 1f          	cmp    rcx,0x1f
    4c46:	77 48                	ja     4c90 <dlmalloc+0x16f0>
    4c48:	44 8d 14 09          	lea    r10d,[rcx+rcx*1]
    4c4c:	4c 8b 4a 10          	mov    r9,QWORD PTR [rdx+0x10]
    4c50:	4f 8d 54 d5 48       	lea    r10,[r13+r10*8+0x48]
    4c55:	4d 39 d1             	cmp    r9,r10
    4c58:	0f 85 66 f0 ff ff    	jne    3cc4 <dlmalloc+0x724>
    4c5e:	49 39 f1             	cmp    r9,rsi
    4c61:	0f 84 3d 03 00 00    	je     4fa4 <dlmalloc+0x1a04>
    4c67:	49 39 f2             	cmp    r10,rsi
    4c6a:	0f 85 18 03 00 00    	jne    4f88 <dlmalloc+0x19e8>
    4c70:	49 89 71 18          	mov    QWORD PTR [r9+0x18],rsi
    4c74:	4c 89 4e 10          	mov    QWORD PTR [rsi+0x10],r9
    4c78:	4c 01 c2             	add    rdx,r8
    4c7b:	4c 01 c7             	add    rdi,r8
    4c7e:	48 8b 4a 08          	mov    rcx,QWORD PTR [rdx+0x8]
    4c82:	e9 f1 f5 ff ff       	jmp    4278 <dlmalloc+0xcd8>
    4c87:	49 89 47 20          	mov    QWORD PTR [r15+0x20],rax
    4c8b:	e9 3c f1 ff ff       	jmp    3dcc <dlmalloc+0x82c>
    4c90:	48 39 d6             	cmp    rsi,rdx
    4c93:	4c 8b 4a 30          	mov    r9,QWORD PTR [rdx+0x30]
    4c97:	0f 84 90 02 00 00    	je     4f2d <dlmalloc+0x198d>
    4c9d:	48 8b 4a 10          	mov    rcx,QWORD PTR [rdx+0x10]
    4ca1:	48 3b 0d 70 44 20 00 	cmp    rcx,QWORD PTR [rip+0x204470]        # 209118 <_gm_+0x18>
    4ca8:	0f 82 32 f0 ff ff    	jb     3ce0 <dlmalloc+0x740>
    4cae:	48 39 51 18          	cmp    QWORD PTR [rcx+0x18],rdx
    4cb2:	0f 85 28 f0 ff ff    	jne    3ce0 <dlmalloc+0x740>
    4cb8:	48 3b 56 10          	cmp    rdx,QWORD PTR [rsi+0x10]
    4cbc:	0f 85 1e f0 ff ff    	jne    3ce0 <dlmalloc+0x740>
    4cc2:	48 89 71 18          	mov    QWORD PTR [rcx+0x18],rsi
    4cc6:	48 89 4e 10          	mov    QWORD PTR [rsi+0x10],rcx
    4cca:	4d 85 c9             	test   r9,r9
    4ccd:	74 a9                	je     4c78 <dlmalloc+0x16d8>
    4ccf:	44 8b 52 38          	mov    r10d,DWORD PTR [rdx+0x38]
    4cd3:	4c 89 d1             	mov    rcx,r10
    4cd6:	49 83 c2 4a          	add    r10,0x4a
    4cda:	4b 39 54 d5 08       	cmp    QWORD PTR [r13+r10*8+0x8],rdx
    4cdf:	0f 84 28 02 00 00    	je     4f0d <dlmalloc+0x196d>
    4ce5:	4c 3b 0d 2c 44 20 00 	cmp    r9,QWORD PTR [rip+0x20442c]        # 209118 <_gm_+0x18>
    4cec:	0f 82 ee ef ff ff    	jb     3ce0 <dlmalloc+0x740>
    4cf2:	49 39 51 20          	cmp    QWORD PTR [r9+0x20],rdx
    4cf6:	0f 84 08 02 00 00    	je     4f04 <dlmalloc+0x1964>
    4cfc:	49 89 71 28          	mov    QWORD PTR [r9+0x28],rsi
    4d00:	48 85 f6             	test   rsi,rsi
    4d03:	0f 84 6f ff ff ff    	je     4c78 <dlmalloc+0x16d8>
    4d09:	4c 8b 15 08 44 20 00 	mov    r10,QWORD PTR [rip+0x204408]        # 209118 <_gm_+0x18>
    4d10:	4c 39 d6             	cmp    rsi,r10
    4d13:	0f 82 c7 ef ff ff    	jb     3ce0 <dlmalloc+0x740>
    4d19:	48 8b 4a 20          	mov    rcx,QWORD PTR [rdx+0x20]
    4d1d:	4c 89 4e 30          	mov    QWORD PTR [rsi+0x30],r9
    4d21:	48 85 c9             	test   rcx,rcx
    4d24:	74 11                	je     4d37 <dlmalloc+0x1797>
    4d26:	49 39 ca             	cmp    r10,rcx
    4d29:	0f 87 b1 ef ff ff    	ja     3ce0 <dlmalloc+0x740>
    4d2f:	48 89 4e 20          	mov    QWORD PTR [rsi+0x20],rcx
    4d33:	48 89 71 30          	mov    QWORD PTR [rcx+0x30],rsi
    4d37:	48 8b 4a 28          	mov    rcx,QWORD PTR [rdx+0x28]
    4d3b:	48 85 c9             	test   rcx,rcx
    4d3e:	0f 84 34 ff ff ff    	je     4c78 <dlmalloc+0x16d8>
    4d44:	49 39 ca             	cmp    r10,rcx
    4d47:	0f 87 93 ef ff ff    	ja     3ce0 <dlmalloc+0x740>
    4d4d:	48 89 4e 28          	mov    QWORD PTR [rsi+0x28],rcx
    4d51:	48 89 71 30          	mov    QWORD PTR [rcx+0x30],rsi
    4d55:	e9 1e ff ff ff       	jmp    4c78 <dlmalloc+0x16d8>
    4d5a:	66 0f 1f 44 00 00    	nop    WORD PTR [rax+rax*1+0x0]
    4d60:	44 09 ca             	or     edx,r9d
    4d63:	4d 01 e8             	add    r8,r13
    4d66:	49 89 84 cd 58 02 00 	mov    QWORD PTR [r13+rcx*8+0x258],rax
    4d6d:	00 
    4d6e:	89 15 90 43 20 00    	mov    DWORD PTR [rip+0x204390],edx        # 209104 <_gm_+0x4>
    4d74:	4c 89 40 30          	mov    QWORD PTR [rax+0x30],r8
    4d78:	48 89 40 18          	mov    QWORD PTR [rax+0x18],rax
    4d7c:	48 89 40 10          	mov    QWORD PTR [rax+0x10],rax
    4d80:	e9 16 ea ff ff       	jmp    379b <dlmalloc+0x1fb>
    4d85:	41 b8 58 02 00 00    	mov    r8d,0x258
    4d8b:	ba 01 00 00 00       	mov    edx,0x1
    4d90:	31 f6                	xor    esi,esi
    4d92:	31 c9                	xor    ecx,ecx
    4d94:	e9 69 fd ff ff       	jmp    4b02 <dlmalloc+0x1562>
    4d99:	48 8b 43 20          	mov    rax,QWORD PTR [rbx+0x20]
    4d9d:	48 85 c0             	test   rax,rax
    4da0:	0f 84 b8 00 00 00    	je     4e5e <dlmalloc+0x18be>
    4da6:	4c 8d 4b 20          	lea    r9,[rbx+0x20]
    4daa:	48 89 c1             	mov    rcx,rax
    4dad:	e9 56 fc ff ff       	jmp    4a08 <dlmalloc+0x1468>
    4db2:	4d 85 f6             	test   r14,r14
    4db5:	0f 84 b2 ee ff ff    	je     3c6d <dlmalloc+0x6cd>
    4dbb:	8b 7b 38             	mov    edi,DWORD PTR [rbx+0x38]
    4dbe:	31 c0                	xor    eax,eax
    4dc0:	48 89 f9             	mov    rcx,rdi
    4dc3:	48 83 c7 4a          	add    rdi,0x4a
    4dc7:	49 39 5c fd 08       	cmp    QWORD PTR [r13+rdi*8+0x8],rbx
    4dcc:	0f 85 42 ee ff ff    	jne    3c14 <dlmalloc+0x674>
    4dd2:	49 c7 44 fd 08 00 00 	mov    QWORD PTR [r13+rdi*8+0x8],0x0
    4dd9:	00 00 
    4ddb:	e9 0a fa ff ff       	jmp    47ea <dlmalloc+0x124a>
    4de0:	49 8b 50 10          	mov    rdx,QWORD PTR [r8+0x10]
    4de4:	49 39 d6             	cmp    r14,rdx
    4de7:	0f 86 90 f0 ff ff    	jbe    3e7d <dlmalloc+0x8dd>
    4ded:	e9 ee ee ff ff       	jmp    3ce0 <dlmalloc+0x740>
    4df2:	66 0f 1f 44 00 00    	nop    WORD PTR [rax+rax*1+0x0]
    4df8:	4c 89 ff             	mov    rdi,r15
    4dfb:	48 89 0c 24          	mov    QWORD PTR [rsp],rcx
    4dff:	e8 2c 0d 00 00       	call   5b30 <sbrk>
    4e04:	4c 39 f0             	cmp    rax,r14
    4e07:	48 89 c3             	mov    rbx,rax
    4e0a:	48 8b 0c 24          	mov    rcx,QWORD PTR [rsp]
    4e0e:	0f 85 ca f5 ff ff    	jne    43de <dlmalloc+0xe3e>
    4e14:	4c 89 f3             	mov    rbx,r14
    4e17:	e9 03 f6 ff ff       	jmp    441f <dlmalloc+0xe7f>
    4e1c:	48 8b 4a 10          	mov    rcx,QWORD PTR [rdx+0x10]
    4e20:	48 3b 0d f1 42 20 00 	cmp    rcx,QWORD PTR [rip+0x2042f1]        # 209118 <_gm_+0x18>
    4e27:	0f 83 9b f4 ff ff    	jae    42c8 <dlmalloc+0xd28>
    4e2d:	e9 ae ee ff ff       	jmp    3ce0 <dlmalloc+0x740>
    4e32:	48 89 d7             	mov    rdi,rdx
    4e35:	48 89 4c 24 08       	mov    QWORD PTR [rsp+0x8],rcx
    4e3a:	48 89 14 24          	mov    QWORD PTR [rsp],rdx
    4e3e:	e8 ed 0c 00 00       	call   5b30 <sbrk>
    4e43:	48 83 c0 01          	add    rax,0x1
    4e47:	48 8b 4c 24 08       	mov    rcx,QWORD PTR [rsp+0x8]
    4e4c:	0f 84 93 00 00 00    	je     4ee5 <dlmalloc+0x1945>
    4e52:	48 8b 14 24          	mov    rdx,QWORD PTR [rsp]
    4e56:	49 01 d7             	add    r15,rdx
    4e59:	e9 c1 f5 ff ff       	jmp    441f <dlmalloc+0xe7f>
    4e5e:	4d 85 ff             	test   r15,r15
    4e61:	0f 84 ab ef ff ff    	je     3e12 <dlmalloc+0x872>
    4e67:	44 8b 4b 38          	mov    r9d,DWORD PTR [rbx+0x38]
    4e6b:	4c 89 c9             	mov    rcx,r9
    4e6e:	49 83 c1 4a          	add    r9,0x4a
    4e72:	4b 3b 5c cd 08       	cmp    rbx,QWORD PTR [r13+r9*8+0x8]
    4e77:	0f 85 38 ef ff ff    	jne    3db5 <dlmalloc+0x815>
    4e7d:	4b c7 44 cd 08 00 00 	mov    QWORD PTR [r13+r9*8+0x8],0x0
    4e84:	00 00 
    4e86:	e9 2d fd ff ff       	jmp    4bb8 <dlmalloc+0x1618>
    4e8b:	48 8d 34 ca          	lea    rsi,[rdx+rcx*8]
    4e8f:	48 39 35 82 42 20 00 	cmp    QWORD PTR [rip+0x204282],rsi        # 209118 <_gm_+0x18>
    4e96:	0f 87 44 ee ff ff    	ja     3ce0 <dlmalloc+0x740>
    4e9c:	48 89 04 ca          	mov    QWORD PTR [rdx+rcx*8],rax
    4ea0:	48 89 50 30          	mov    QWORD PTR [rax+0x30],rdx
    4ea4:	48 89 40 18          	mov    QWORD PTR [rax+0x18],rax
    4ea8:	48 89 40 10          	mov    QWORD PTR [rax+0x10],rax
    4eac:	e9 ea e8 ff ff       	jmp    379b <dlmalloc+0x1fb>
    4eb1:	41 b8 50 03 00 00    	mov    r8d,0x350
    4eb7:	ba 00 00 00 80       	mov    edx,0x80000000
    4ebc:	be 1f 00 00 00       	mov    esi,0x1f
    4ec1:	b9 1f 00 00 00       	mov    ecx,0x1f
    4ec6:	e9 37 fc ff ff       	jmp    4b02 <dlmalloc+0x1562>
    4ecb:	48 89 fe             	mov    rsi,rdi
    4ece:	48 83 ce 03          	or     rsi,0x3
    4ed2:	e9 2f e8 ff ff       	jmp    3706 <dlmalloc+0x166>
    4ed7:	48 85 d2             	test   rdx,rdx
    4eda:	0f 85 65 ea ff ff    	jne    3945 <dlmalloc+0x3a5>
    4ee0:	e9 5b ea ff ff       	jmp    3940 <dlmalloc+0x3a0>
    4ee5:	4c 89 f7             	mov    rdi,r14
    4ee8:	48 89 0c 24          	mov    QWORD PTR [rsp],rcx
    4eec:	e8 3f 0c 00 00       	call   5b30 <sbrk>
    4ef1:	c7 05 f5 45 20 00 00 	mov    DWORD PTR [rip+0x2045f5],0x0        # 2094f0 <malloc_global_mutex>
    4ef8:	00 00 00 
    4efb:	48 8b 0c 24          	mov    rcx,QWORD PTR [rsp]
    4eff:	e9 5e eb ff ff       	jmp    3a62 <dlmalloc+0x4c2>
    4f04:	49 89 71 20          	mov    QWORD PTR [r9+0x20],rsi
    4f08:	e9 f3 fd ff ff       	jmp    4d00 <dlmalloc+0x1760>
    4f0d:	48 85 f6             	test   rsi,rsi
    4f10:	4b 89 74 d5 08       	mov    QWORD PTR [r13+r10*8+0x8],rsi
    4f15:	0f 85 ee fd ff ff    	jne    4d09 <dlmalloc+0x1769>
    4f1b:	be fe ff ff ff       	mov    esi,0xfffffffe
    4f20:	d3 c6                	rol    esi,cl
    4f22:	21 35 dc 41 20 00    	and    DWORD PTR [rip+0x2041dc],esi        # 209104 <_gm_+0x4>
    4f28:	e9 4b fd ff ff       	jmp    4c78 <dlmalloc+0x16d8>
    4f2d:	48 8b 72 28          	mov    rsi,QWORD PTR [rdx+0x28]
    4f31:	4c 8d 5a 28          	lea    r11,[rdx+0x28]
    4f35:	48 85 f6             	test   rsi,rsi
    4f38:	74 3c                	je     4f76 <dlmalloc+0x19d6>
    4f3a:	49 89 f2             	mov    r10,rsi
    4f3d:	4c 89 d6             	mov    rsi,r10
    4f40:	4d 8b 52 28          	mov    r10,QWORD PTR [r10+0x28]
    4f44:	4c 89 d9             	mov    rcx,r11
    4f47:	4c 8d 5e 28          	lea    r11,[rsi+0x28]
    4f4b:	4d 85 d2             	test   r10,r10
    4f4e:	75 ed                	jne    4f3d <dlmalloc+0x199d>
    4f50:	4c 8b 56 20          	mov    r10,QWORD PTR [rsi+0x20]
    4f54:	4c 8d 5e 20          	lea    r11,[rsi+0x20]
    4f58:	4d 85 d2             	test   r10,r10
    4f5b:	75 e0                	jne    4f3d <dlmalloc+0x199d>
    4f5d:	48 39 0d b4 41 20 00 	cmp    QWORD PTR [rip+0x2041b4],rcx        # 209118 <_gm_+0x18>
    4f64:	0f 87 76 ed ff ff    	ja     3ce0 <dlmalloc+0x740>
    4f6a:	48 c7 01 00 00 00 00 	mov    QWORD PTR [rcx],0x0
    4f71:	e9 54 fd ff ff       	jmp    4cca <dlmalloc+0x172a>
    4f76:	48 8b 72 20          	mov    rsi,QWORD PTR [rdx+0x20]
    4f7a:	4c 8d 5a 20          	lea    r11,[rdx+0x20]
    4f7e:	48 85 f6             	test   rsi,rsi
    4f81:	75 b7                	jne    4f3a <dlmalloc+0x199a>
    4f83:	e9 42 fd ff ff       	jmp    4cca <dlmalloc+0x172a>
    4f88:	48 3b 35 89 41 20 00 	cmp    rsi,QWORD PTR [rip+0x204189]        # 209118 <_gm_+0x18>
    4f8f:	0f 82 4b ed ff ff    	jb     3ce0 <dlmalloc+0x740>
    4f95:	48 39 56 10          	cmp    QWORD PTR [rsi+0x10],rdx
    4f99:	0f 84 d1 fc ff ff    	je     4c70 <dlmalloc+0x16d0>
    4f9f:	e9 3c ed ff ff       	jmp    3ce0 <dlmalloc+0x740>
    4fa4:	be fe ff ff ff       	mov    esi,0xfffffffe
    4fa9:	d3 c6                	rol    esi,cl
    4fab:	21 35 4f 41 20 00    	and    DWORD PTR [rip+0x20414f],esi        # 209100 <_gm_>
    4fb1:	e9 c2 fc ff ff       	jmp    4c78 <dlmalloc+0x16d8>
    4fb6:	66 2e 0f 1f 84 00 00 	nop    WORD PTR cs:[rax+rax*1+0x0]
    4fbd:	00 00 00 

0000000000004fc0 <dlfree>:
    4fc0:	48 85 ff             	test   rdi,rdi
    4fc3:	0f 84 37 02 00 00    	je     5200 <dlfree+0x240>
    4fc9:	41 55                	push   r13
    4fcb:	41 54                	push   r12
    4fcd:	48 8d 57 f0          	lea    rdx,[rdi-0x10]
    4fd1:	55                   	push   rbp
    4fd2:	53                   	push   rbx
    4fd3:	48 83 ec 08          	sub    rsp,0x8
    4fd7:	48 8b 47 f8          	mov    rax,QWORD PTR [rdi-0x8]
    4fdb:	48 8b 0d de 44 20 00 	mov    rcx,QWORD PTR [rip+0x2044de]        # 2094c0 <mparams>
    4fe2:	48 83 e0 f8          	and    rax,0xfffffffffffffff8
    4fe6:	48 8b 5c 07 f0       	mov    rbx,QWORD PTR [rdi+rax*1-0x10]
    4feb:	48 31 cb             	xor    rbx,rcx
    4fee:	48 3b 4b 40          	cmp    rcx,QWORD PTR [rbx+0x40]
    4ff2:	0f 85 d4 03 00 00    	jne    53cc <dlfree+0x40c>
    4ff8:	f6 83 70 03 00 00 02 	test   BYTE PTR [rbx+0x370],0x2
    4fff:	0f 85 c3 01 00 00    	jne    51c8 <dlfree+0x208>
    5005:	4c 8b 43 18          	mov    r8,QWORD PTR [rbx+0x18]
    5009:	49 39 d0             	cmp    r8,rdx
    500c:	0f 87 f6 01 00 00    	ja     5208 <dlfree+0x248>
    5012:	48 8b 4f f8          	mov    rcx,QWORD PTR [rdi-0x8]
    5016:	49 89 c9             	mov    r9,rcx
    5019:	41 83 e1 03          	and    r9d,0x3
    501d:	49 83 f9 01          	cmp    r9,0x1
    5021:	0f 84 e1 01 00 00    	je     5208 <dlfree+0x248>
    5027:	48 89 c8             	mov    rax,rcx
    502a:	48 83 e0 f8          	and    rax,0xfffffffffffffff8
    502e:	83 e1 01             	and    ecx,0x1
    5031:	48 8d 34 02          	lea    rsi,[rdx+rax*1]
    5035:	0f 84 95 00 00 00    	je     50d0 <dlfree+0x110>
    503b:	48 39 f2             	cmp    rdx,rsi
    503e:	0f 83 c4 01 00 00    	jae    5208 <dlfree+0x248>
    5044:	48 8b 4e 08          	mov    rcx,QWORD PTR [rsi+0x8]
    5048:	f6 c1 01             	test   cl,0x1
    504b:	0f 84 b7 01 00 00    	je     5208 <dlfree+0x248>
    5051:	f6 c1 02             	test   cl,0x2
    5054:	0f 84 b6 01 00 00    	je     5210 <dlfree+0x250>
    505a:	48 83 e1 fe          	and    rcx,0xfffffffffffffffe
    505e:	48 89 4e 08          	mov    QWORD PTR [rsi+0x8],rcx
    5062:	48 89 c1             	mov    rcx,rax
    5065:	48 83 c9 01          	or     rcx,0x1
    5069:	48 89 4a 08          	mov    QWORD PTR [rdx+0x8],rcx
    506d:	48 89 04 02          	mov    QWORD PTR [rdx+rax*1],rax
    5071:	48 89 c1             	mov    rcx,rax
    5074:	48 c1 e9 03          	shr    rcx,0x3
    5078:	48 83 f9 1f          	cmp    rcx,0x1f
    507c:	0f 87 96 02 00 00    	ja     5318 <dlfree+0x358>
    5082:	8d 04 09             	lea    eax,[rcx+rcx*1]
    5085:	8b 3b                	mov    edi,DWORD PTR [rbx]
    5087:	48 8d 74 c3 48       	lea    rsi,[rbx+rax*8+0x48]
    508c:	b8 01 00 00 00       	mov    eax,0x1
    5091:	d3 e0                	shl    eax,cl
    5093:	85 c7                	test   edi,eax
    5095:	0f 85 23 03 00 00    	jne    53be <dlfree+0x3fe>
    509b:	09 f8                	or     eax,edi
    509d:	89 03                	mov    DWORD PTR [rbx],eax
    509f:	48 89 f0             	mov    rax,rsi
    50a2:	48 89 56 10          	mov    QWORD PTR [rsi+0x10],rdx
    50a6:	48 89 50 18          	mov    QWORD PTR [rax+0x18],rdx
    50aa:	48 89 42 10          	mov    QWORD PTR [rdx+0x10],rax
    50ae:	48 89 72 18          	mov    QWORD PTR [rdx+0x18],rsi
    50b2:	f6 83 70 03 00 00 02 	test   BYTE PTR [rbx+0x370],0x2
    50b9:	74 0a                	je     50c5 <dlfree+0x105>
    50bb:	c7 83 74 03 00 00 00 	mov    DWORD PTR [rbx+0x374],0x0
    50c2:	00 00 00 
    50c5:	48 83 c4 08          	add    rsp,0x8
    50c9:	5b                   	pop    rbx
    50ca:	5d                   	pop    rbp
    50cb:	41 5c                	pop    r12
    50cd:	41 5d                	pop    r13
    50cf:	c3                   	ret    
    50d0:	4d 85 c9             	test   r9,r9
    50d3:	74 dd                	je     50b2 <dlfree+0xf2>
    50d5:	48 8b 4f f0          	mov    rcx,QWORD PTR [rdi-0x10]
    50d9:	48 29 ca             	sub    rdx,rcx
    50dc:	48 01 c8             	add    rax,rcx
    50df:	49 39 d0             	cmp    r8,rdx
    50e2:	0f 87 20 01 00 00    	ja     5208 <dlfree+0x248>
    50e8:	48 39 53 20          	cmp    QWORD PTR [rbx+0x20],rdx
    50ec:	0f 84 30 05 00 00    	je     5622 <dlfree+0x662>
    50f2:	48 c1 e9 03          	shr    rcx,0x3
    50f6:	48 8b 7a 18          	mov    rdi,QWORD PTR [rdx+0x18]
    50fa:	48 83 f9 1f          	cmp    rcx,0x1f
    50fe:	0f 86 4a 03 00 00    	jbe    544e <dlfree+0x48e>
    5104:	48 39 d7             	cmp    rdi,rdx
    5107:	4c 8b 5a 30          	mov    r11,QWORD PTR [rdx+0x30]
    510b:	0f 84 9c 05 00 00    	je     56ad <dlfree+0x6ed>
    5111:	48 8b 4a 10          	mov    rcx,QWORD PTR [rdx+0x10]
    5115:	49 39 c8             	cmp    r8,rcx
    5118:	0f 87 ae 02 00 00    	ja     53cc <dlfree+0x40c>
    511e:	48 39 51 18          	cmp    QWORD PTR [rcx+0x18],rdx
    5122:	0f 85 a4 02 00 00    	jne    53cc <dlfree+0x40c>
    5128:	48 39 57 10          	cmp    QWORD PTR [rdi+0x10],rdx
    512c:	0f 85 9a 02 00 00    	jne    53cc <dlfree+0x40c>
    5132:	48 89 79 18          	mov    QWORD PTR [rcx+0x18],rdi
    5136:	48 89 4f 10          	mov    QWORD PTR [rdi+0x10],rcx
    513a:	4d 85 db             	test   r11,r11
    513d:	0f 84 f8 fe ff ff    	je     503b <dlfree+0x7b>
    5143:	44 8b 4a 38          	mov    r9d,DWORD PTR [rdx+0x38]
    5147:	4c 89 c9             	mov    rcx,r9
    514a:	4e 8d 0c cb          	lea    r9,[rbx+r9*8]
    514e:	49 39 91 58 02 00 00 	cmp    QWORD PTR [r9+0x258],rdx
    5155:	0f 84 02 06 00 00    	je     575d <dlfree+0x79d>
    515b:	4d 39 d8             	cmp    r8,r11
    515e:	0f 87 68 02 00 00    	ja     53cc <dlfree+0x40c>
    5164:	49 39 53 20          	cmp    QWORD PTR [r11+0x20],rdx
    5168:	0f 84 2d 06 00 00    	je     579b <dlfree+0x7db>
    516e:	49 89 7b 28          	mov    QWORD PTR [r11+0x28],rdi
    5172:	48 85 ff             	test   rdi,rdi
    5175:	0f 84 c0 fe ff ff    	je     503b <dlfree+0x7b>
    517b:	49 39 f8             	cmp    r8,rdi
    517e:	0f 87 48 02 00 00    	ja     53cc <dlfree+0x40c>
    5184:	48 8b 4a 20          	mov    rcx,QWORD PTR [rdx+0x20]
    5188:	4c 89 5f 30          	mov    QWORD PTR [rdi+0x30],r11
    518c:	48 85 c9             	test   rcx,rcx
    518f:	74 11                	je     51a2 <dlfree+0x1e2>
    5191:	49 39 c8             	cmp    r8,rcx
    5194:	0f 87 32 02 00 00    	ja     53cc <dlfree+0x40c>
    519a:	48 89 4f 20          	mov    QWORD PTR [rdi+0x20],rcx
    519e:	48 89 79 30          	mov    QWORD PTR [rcx+0x30],rdi
    51a2:	48 8b 4a 28          	mov    rcx,QWORD PTR [rdx+0x28]
    51a6:	48 85 c9             	test   rcx,rcx
    51a9:	0f 84 8c fe ff ff    	je     503b <dlfree+0x7b>
    51af:	49 39 c8             	cmp    r8,rcx
    51b2:	0f 87 14 02 00 00    	ja     53cc <dlfree+0x40c>
    51b8:	48 89 4f 28          	mov    QWORD PTR [rdi+0x28],rcx
    51bc:	48 89 79 30          	mov    QWORD PTR [rcx+0x30],rdi
    51c0:	e9 76 fe ff ff       	jmp    503b <dlfree+0x7b>
    51c5:	0f 1f 00             	nop    DWORD PTR [rax]
    51c8:	48 8d 8b 74 03 00 00 	lea    rcx,[rbx+0x374]
    51cf:	b8 01 00 00 00       	mov    eax,0x1
    51d4:	87 01                	xchg   DWORD PTR [rcx],eax
    51d6:	85 c0                	test   eax,eax
    51d8:	0f 84 27 fe ff ff    	je     5005 <dlfree+0x45>
    51de:	be 01 00 00 00       	mov    esi,0x1
    51e3:	0f 1f 44 00 00       	nop    DWORD PTR [rax+rax*1+0x0]
    51e8:	8b 83 74 03 00 00    	mov    eax,DWORD PTR [rbx+0x374]
    51ee:	85 c0                	test   eax,eax
    51f0:	75 f6                	jne    51e8 <dlfree+0x228>
    51f2:	89 f0                	mov    eax,esi
    51f4:	87 01                	xchg   DWORD PTR [rcx],eax
    51f6:	85 c0                	test   eax,eax
    51f8:	75 ee                	jne    51e8 <dlfree+0x228>
    51fa:	e9 06 fe ff ff       	jmp    5005 <dlfree+0x45>
    51ff:	90                   	nop
    5200:	f3 c3                	repz ret 
    5202:	66 0f 1f 44 00 00    	nop    WORD PTR [rax+rax*1+0x0]
    5208:	e8 9c 19 00 00       	call   6ba9 <abort>
    520d:	0f 1f 00             	nop    DWORD PTR [rax]
    5210:	48 39 73 28          	cmp    QWORD PTR [rbx+0x28],rsi
    5214:	4c 8b 53 20          	mov    r10,QWORD PTR [rbx+0x20]
    5218:	0f 84 d5 02 00 00    	je     54f3 <dlfree+0x533>
    521e:	49 39 f2             	cmp    r10,rsi
    5221:	0f 84 2e 04 00 00    	je     5655 <dlfree+0x695>
    5227:	48 83 e1 f8          	and    rcx,0xfffffffffffffff8
    522b:	48 8b 7e 18          	mov    rdi,QWORD PTR [rsi+0x18]
    522f:	48 01 c8             	add    rax,rcx
    5232:	48 c1 e9 03          	shr    rcx,0x3
    5236:	48 83 f9 1f          	cmp    rcx,0x1f
    523a:	0f 86 43 02 00 00    	jbe    5483 <dlfree+0x4c3>
    5240:	48 39 f7             	cmp    rdi,rsi
    5243:	48 8b 6e 30          	mov    rbp,QWORD PTR [rsi+0x30]
    5247:	0f 84 c4 04 00 00    	je     5711 <dlfree+0x751>
    524d:	48 8b 4e 10          	mov    rcx,QWORD PTR [rsi+0x10]
    5251:	49 39 c8             	cmp    r8,rcx
    5254:	0f 87 72 01 00 00    	ja     53cc <dlfree+0x40c>
    525a:	48 39 71 18          	cmp    QWORD PTR [rcx+0x18],rsi
    525e:	0f 85 68 01 00 00    	jne    53cc <dlfree+0x40c>
    5264:	48 39 77 10          	cmp    QWORD PTR [rdi+0x10],rsi
    5268:	0f 85 5e 01 00 00    	jne    53cc <dlfree+0x40c>
    526e:	48 89 79 18          	mov    QWORD PTR [rcx+0x18],rdi
    5272:	48 89 4f 10          	mov    QWORD PTR [rdi+0x10],rcx
    5276:	48 85 ed             	test   rbp,rbp
    5279:	74 75                	je     52f0 <dlfree+0x330>
    527b:	44 8b 4e 38          	mov    r9d,DWORD PTR [rsi+0x38]
    527f:	4c 89 c9             	mov    rcx,r9
    5282:	4e 8d 0c cb          	lea    r9,[rbx+r9*8]
    5286:	49 39 b1 58 02 00 00 	cmp    QWORD PTR [r9+0x258],rsi
    528d:	0f 84 e9 04 00 00    	je     577c <dlfree+0x7bc>
    5293:	49 39 e8             	cmp    r8,rbp
    5296:	0f 87 30 01 00 00    	ja     53cc <dlfree+0x40c>
    529c:	48 39 75 20          	cmp    QWORD PTR [rbp+0x20],rsi
    52a0:	0f 84 5a 05 00 00    	je     5800 <dlfree+0x840>
    52a6:	48 89 7d 28          	mov    QWORD PTR [rbp+0x28],rdi
    52aa:	48 85 ff             	test   rdi,rdi
    52ad:	74 41                	je     52f0 <dlfree+0x330>
    52af:	49 39 f8             	cmp    r8,rdi
    52b2:	0f 87 14 01 00 00    	ja     53cc <dlfree+0x40c>
    52b8:	48 8b 4e 20          	mov    rcx,QWORD PTR [rsi+0x20]
    52bc:	48 89 6f 30          	mov    QWORD PTR [rdi+0x30],rbp
    52c0:	48 85 c9             	test   rcx,rcx
    52c3:	74 11                	je     52d6 <dlfree+0x316>
    52c5:	49 39 c8             	cmp    r8,rcx
    52c8:	0f 87 fe 00 00 00    	ja     53cc <dlfree+0x40c>
    52ce:	48 89 4f 20          	mov    QWORD PTR [rdi+0x20],rcx
    52d2:	48 89 79 30          	mov    QWORD PTR [rcx+0x30],rdi
    52d6:	48 8b 4e 28          	mov    rcx,QWORD PTR [rsi+0x28]
    52da:	48 85 c9             	test   rcx,rcx
    52dd:	74 11                	je     52f0 <dlfree+0x330>
    52df:	49 39 c8             	cmp    r8,rcx
    52e2:	0f 87 e4 00 00 00    	ja     53cc <dlfree+0x40c>
    52e8:	48 89 4f 28          	mov    QWORD PTR [rdi+0x28],rcx
    52ec:	48 89 79 30          	mov    QWORD PTR [rcx+0x30],rdi
    52f0:	48 89 c1             	mov    rcx,rax
    52f3:	48 83 c9 01          	or     rcx,0x1
    52f7:	4c 39 d2             	cmp    rdx,r10
    52fa:	48 89 4a 08          	mov    QWORD PTR [rdx+0x8],rcx
    52fe:	48 89 04 02          	mov    QWORD PTR [rdx+rax*1],rax
    5302:	0f 85 69 fd ff ff    	jne    5071 <dlfree+0xb1>
    5308:	48 89 43 08          	mov    QWORD PTR [rbx+0x8],rax
    530c:	e9 a1 fd ff ff       	jmp    50b2 <dlfree+0xf2>
    5311:	0f 1f 80 00 00 00 00 	nop    DWORD PTR [rax+0x0]
    5318:	48 89 c1             	mov    rcx,rax
    531b:	48 c1 e9 08          	shr    rcx,0x8
    531f:	85 c9                	test   ecx,ecx
    5321:	74 24                	je     5347 <dlfree+0x387>
    5323:	81 f9 ff ff 00 00    	cmp    ecx,0xffff
    5329:	0f 86 89 01 00 00    	jbe    54b8 <dlfree+0x4f8>
    532f:	be 00 00 00 80       	mov    esi,0x80000000
    5334:	41 b9 50 03 00 00    	mov    r9d,0x350
    533a:	b9 1f 00 00 00       	mov    ecx,0x1f
    533f:	41 ba 1f 00 00 00    	mov    r10d,0x1f
    5345:	eb 10                	jmp    5357 <dlfree+0x397>
    5347:	be 01 00 00 00       	mov    esi,0x1
    534c:	41 b9 58 02 00 00    	mov    r9d,0x258
    5352:	31 c9                	xor    ecx,ecx
    5354:	45 31 d2             	xor    r10d,r10d
    5357:	8b 7b 04             	mov    edi,DWORD PTR [rbx+0x4]
    535a:	89 4a 38             	mov    DWORD PTR [rdx+0x38],ecx
    535d:	48 c7 42 28 00 00 00 	mov    QWORD PTR [rdx+0x28],0x0
    5364:	00 
    5365:	48 c7 42 20 00 00 00 	mov    QWORD PTR [rdx+0x20],0x0
    536c:	00 
    536d:	85 fe                	test   esi,edi
    536f:	75 60                	jne    53d1 <dlfree+0x411>
    5371:	09 fe                	or     esi,edi
    5373:	49 01 d9             	add    r9,rbx
    5376:	89 73 04             	mov    DWORD PTR [rbx+0x4],esi
    5379:	4a 89 94 d3 58 02 00 	mov    QWORD PTR [rbx+r10*8+0x258],rdx
    5380:	00 
    5381:	4c 89 4a 30          	mov    QWORD PTR [rdx+0x30],r9
    5385:	48 89 52 18          	mov    QWORD PTR [rdx+0x18],rdx
    5389:	48 89 52 10          	mov    QWORD PTR [rdx+0x10],rdx
    538d:	48 83 6b 38 01       	sub    QWORD PTR [rbx+0x38],0x1
    5392:	0f 85 1a fd ff ff    	jne    50b2 <dlfree+0xf2>
    5398:	48 8b 83 88 03 00 00 	mov    rax,QWORD PTR [rbx+0x388]
    539f:	48 85 c0             	test   rax,rax
    53a2:	74 0d                	je     53b1 <dlfree+0x3f1>
    53a4:	0f 1f 40 00          	nop    DWORD PTR [rax+0x0]
    53a8:	48 8b 40 10          	mov    rax,QWORD PTR [rax+0x10]
    53ac:	48 85 c0             	test   rax,rax
    53af:	75 f7                	jne    53a8 <dlfree+0x3e8>
    53b1:	48 c7 43 38 ff ff ff 	mov    QWORD PTR [rbx+0x38],0xffffffffffffffff
    53b8:	ff 
    53b9:	e9 f4 fc ff ff       	jmp    50b2 <dlfree+0xf2>
    53be:	48 8b 46 10          	mov    rax,QWORD PTR [rsi+0x10]
    53c2:	48 3b 43 18          	cmp    rax,QWORD PTR [rbx+0x18]
    53c6:	0f 83 d6 fc ff ff    	jae    50a2 <dlfree+0xe2>
    53cc:	e8 d8 17 00 00       	call   6ba9 <abort>
    53d1:	83 f9 1f             	cmp    ecx,0x1f
    53d4:	4a 8b b4 d3 58 02 00 	mov    rsi,QWORD PTR [rbx+r10*8+0x258]
    53db:	00 
    53dc:	48 89 c7             	mov    rdi,rax
    53df:	74 35                	je     5416 <dlfree+0x456>
    53e1:	d1 e9                	shr    ecx,1
    53e3:	bf 39 00 00 00       	mov    edi,0x39
    53e8:	29 cf                	sub    edi,ecx
    53ea:	89 f9                	mov    ecx,edi
    53ec:	48 89 c7             	mov    rdi,rax
    53ef:	48 d3 e7             	shl    rdi,cl
    53f2:	eb 22                	jmp    5416 <dlfree+0x456>
    53f4:	0f 1f 40 00          	nop    DWORD PTR [rax+0x0]
    53f8:	48 89 f9             	mov    rcx,rdi
    53fb:	48 01 ff             	add    rdi,rdi
    53fe:	48 c1 e9 3f          	shr    rcx,0x3f
    5402:	48 83 c1 04          	add    rcx,0x4
    5406:	4c 8b 0c ce          	mov    r9,QWORD PTR [rsi+rcx*8]
    540a:	4d 85 c9             	test   r9,r9
    540d:	0f 84 62 02 00 00    	je     5675 <dlfree+0x6b5>
    5413:	4c 89 ce             	mov    rsi,r9
    5416:	48 8b 4e 08          	mov    rcx,QWORD PTR [rsi+0x8]
    541a:	48 83 e1 f8          	and    rcx,0xfffffffffffffff8
    541e:	48 39 c1             	cmp    rcx,rax
    5421:	75 d5                	jne    53f8 <dlfree+0x438>
    5423:	49 39 f0             	cmp    r8,rsi
    5426:	48 8b 46 10          	mov    rax,QWORD PTR [rsi+0x10]
    542a:	77 a0                	ja     53cc <dlfree+0x40c>
    542c:	49 39 c0             	cmp    r8,rax
    542f:	77 9b                	ja     53cc <dlfree+0x40c>
    5431:	48 89 50 18          	mov    QWORD PTR [rax+0x18],rdx
    5435:	48 89 56 10          	mov    QWORD PTR [rsi+0x10],rdx
    5439:	48 89 42 10          	mov    QWORD PTR [rdx+0x10],rax
    543d:	48 89 72 18          	mov    QWORD PTR [rdx+0x18],rsi
    5441:	48 c7 42 30 00 00 00 	mov    QWORD PTR [rdx+0x30],0x0
    5448:	00 
    5449:	e9 3f ff ff ff       	jmp    538d <dlfree+0x3cd>
    544e:	44 8d 14 09          	lea    r10d,[rcx+rcx*1]
    5452:	4c 8b 4a 10          	mov    r9,QWORD PTR [rdx+0x10]
    5456:	4e 8d 54 d3 48       	lea    r10,[rbx+r10*8+0x48]
    545b:	4d 39 ca             	cmp    r10,r9
    545e:	0f 85 40 03 00 00    	jne    57a4 <dlfree+0x7e4>
    5464:	4c 39 cf             	cmp    rdi,r9
    5467:	0f 84 88 02 00 00    	je     56f5 <dlfree+0x735>
    546d:	49 39 fa             	cmp    r10,rdi
    5470:	0f 85 bd 03 00 00    	jne    5833 <dlfree+0x873>
    5476:	49 89 79 18          	mov    QWORD PTR [r9+0x18],rdi
    547a:	4c 89 4f 10          	mov    QWORD PTR [rdi+0x10],r9
    547e:	e9 b8 fb ff ff       	jmp    503b <dlfree+0x7b>
    5483:	44 8d 1c 09          	lea    r11d,[rcx+rcx*1]
    5487:	4c 8b 4e 10          	mov    r9,QWORD PTR [rsi+0x10]
    548b:	4e 8d 5c db 48       	lea    r11,[rbx+r11*8+0x48]
    5490:	4d 39 cb             	cmp    r11,r9
    5493:	0f 85 82 03 00 00    	jne    581b <dlfree+0x85b>
    5499:	4c 39 cf             	cmp    rdi,r9
    549c:	0f 84 61 02 00 00    	je     5703 <dlfree+0x743>
    54a2:	4c 39 df             	cmp    rdi,r11
    54a5:	0f 85 a0 03 00 00    	jne    584b <dlfree+0x88b>
    54ab:	49 89 79 18          	mov    QWORD PTR [r9+0x18],rdi
    54af:	4c 89 4f 10          	mov    QWORD PTR [rdi+0x10],r9
    54b3:	e9 38 fe ff ff       	jmp    52f0 <dlfree+0x330>
    54b8:	0f bd f1             	bsr    esi,ecx
    54bb:	b9 26 00 00 00       	mov    ecx,0x26
    54c0:	48 89 c7             	mov    rdi,rax
    54c3:	83 f6 1f             	xor    esi,0x1f
    54c6:	29 f1                	sub    ecx,esi
    54c8:	48 d3 ef             	shr    rdi,cl
    54cb:	48 89 f9             	mov    rcx,rdi
    54ce:	bf 1f 00 00 00       	mov    edi,0x1f
    54d3:	83 e1 01             	and    ecx,0x1
    54d6:	29 f7                	sub    edi,esi
    54d8:	be 01 00 00 00       	mov    esi,0x1
    54dd:	44 8d 14 79          	lea    r10d,[rcx+rdi*2]
    54e1:	4c 89 d1             	mov    rcx,r10
    54e4:	4e 8d 0c d5 58 02 00 	lea    r9,[r10*8+0x258]
    54eb:	00 
    54ec:	d3 e6                	shl    esi,cl
    54ee:	e9 64 fe ff ff       	jmp    5357 <dlfree+0x397>
    54f3:	48 03 43 10          	add    rax,QWORD PTR [rbx+0x10]
    54f7:	48 89 53 28          	mov    QWORD PTR [rbx+0x28],rdx
    54fb:	48 89 c1             	mov    rcx,rax
    54fe:	48 89 43 10          	mov    QWORD PTR [rbx+0x10],rax
    5502:	48 83 c9 01          	or     rcx,0x1
    5506:	4c 39 d2             	cmp    rdx,r10
    5509:	48 89 4a 08          	mov    QWORD PTR [rdx+0x8],rcx
    550d:	0f 84 85 01 00 00    	je     5698 <dlfree+0x6d8>
    5513:	48 3b 43 30          	cmp    rax,QWORD PTR [rbx+0x30]
    5517:	0f 86 95 fb ff ff    	jbe    50b2 <dlfree+0xf2>
    551d:	48 83 3d 9b 3f 20 00 	cmp    QWORD PTR [rip+0x203f9b],0x0        # 2094c0 <mparams>
    5524:	00 
    5525:	75 09                	jne    5530 <dlfree+0x570>
    5527:	e8 84 df ff ff       	call   34b0 <init_mparams>
    552c:	48 8b 53 28          	mov    rdx,QWORD PTR [rbx+0x28]
    5530:	48 85 d2             	test   rdx,rdx
    5533:	0f 84 79 fb ff ff    	je     50b2 <dlfree+0xf2>
    5539:	48 8b 4b 10          	mov    rcx,QWORD PTR [rbx+0x10]
    553d:	48 83 f9 50          	cmp    rcx,0x50
    5541:	0f 86 c4 00 00 00    	jbe    560b <dlfree+0x64b>
    5547:	48 8d ab 78 03 00 00 	lea    rbp,[rbx+0x378]
    554e:	48 8b 45 00          	mov    rax,QWORD PTR [rbp+0x0]
    5552:	48 39 c2             	cmp    rdx,rax
    5555:	72 09                	jb     5560 <dlfree+0x5a0>
    5557:	48 03 45 08          	add    rax,QWORD PTR [rbp+0x8]
    555b:	48 39 c2             	cmp    rdx,rax
    555e:	72 09                	jb     5569 <dlfree+0x5a9>
    5560:	48 8b 6d 10          	mov    rbp,QWORD PTR [rbp+0x10]
    5564:	48 85 ed             	test   rbp,rbp
    5567:	75 e5                	jne    554e <dlfree+0x58e>
    5569:	f6 45 18 08          	test   BYTE PTR [rbp+0x18],0x8
    556d:	0f 85 98 00 00 00    	jne    560b <dlfree+0x64b>
    5573:	48 8b 35 56 3f 20 00 	mov    rsi,QWORD PTR [rip+0x203f56]        # 2094d0 <mparams+0x10>
    557a:	31 d2                	xor    edx,edx
    557c:	48 8d 44 31 af       	lea    rax,[rcx+rsi*1-0x51]
    5581:	48 f7 f6             	div    rsi
    5584:	48 83 e8 01          	sub    rax,0x1
    5588:	48 0f af c6          	imul   rax,rsi
    558c:	49 89 c4             	mov    r12,rax
    558f:	48 b8 fe ff ff ff ff 	movabs rax,0x7ffffffffffffffe
    5596:	ff ff 7f 
    5599:	49 39 c4             	cmp    r12,rax
    559c:	76 0d                	jbe    55ab <dlfree+0x5eb>
    559e:	49 bc 00 00 00 00 00 	movabs r12,0x8000000000000000
    55a5:	00 00 80 
    55a8:	49 29 f4             	sub    r12,rsi
    55ab:	b8 01 00 00 00       	mov    eax,0x1
    55b0:	87 05 3a 3f 20 00    	xchg   DWORD PTR [rip+0x203f3a],eax        # 2094f0 <malloc_global_mutex>
    55b6:	85 c0                	test   eax,eax
    55b8:	74 28                	je     55e2 <dlfree+0x622>
    55ba:	48 8d 15 2f 3f 20 00 	lea    rdx,[rip+0x203f2f]        # 2094f0 <malloc_global_mutex>
    55c1:	b9 01 00 00 00       	mov    ecx,0x1
    55c6:	66 2e 0f 1f 84 00 00 	nop    WORD PTR cs:[rax+rax*1+0x0]
    55cd:	00 00 00 
    55d0:	8b 02                	mov    eax,DWORD PTR [rdx]
    55d2:	85 c0                	test   eax,eax
    55d4:	75 fa                	jne    55d0 <dlfree+0x610>
    55d6:	89 c8                	mov    eax,ecx
    55d8:	87 05 12 3f 20 00    	xchg   DWORD PTR [rip+0x203f12],eax        # 2094f0 <malloc_global_mutex>
    55de:	85 c0                	test   eax,eax
    55e0:	75 ee                	jne    55d0 <dlfree+0x610>
    55e2:	31 ff                	xor    edi,edi
    55e4:	e8 47 05 00 00       	call   5b30 <sbrk>
    55e9:	49 89 c5             	mov    r13,rax
    55ec:	48 8b 45 08          	mov    rax,QWORD PTR [rbp+0x8]
    55f0:	48 03 45 00          	add    rax,QWORD PTR [rbp+0x0]
    55f4:	49 39 c5             	cmp    r13,rax
    55f7:	0f 84 98 02 00 00    	je     5895 <dlfree+0x8d5>
    55fd:	c7 05 e9 3e 20 00 00 	mov    DWORD PTR [rip+0x203ee9],0x0        # 2094f0 <malloc_global_mutex>
    5604:	00 00 00 
    5607:	48 8b 4b 10          	mov    rcx,QWORD PTR [rbx+0x10]
    560b:	48 3b 4b 30          	cmp    rcx,QWORD PTR [rbx+0x30]
    560f:	0f 86 9d fa ff ff    	jbe    50b2 <dlfree+0xf2>
    5615:	48 c7 43 30 ff ff ff 	mov    QWORD PTR [rbx+0x30],0xffffffffffffffff
    561c:	ff 
    561d:	e9 90 fa ff ff       	jmp    50b2 <dlfree+0xf2>
    5622:	48 8b 4e 08          	mov    rcx,QWORD PTR [rsi+0x8]
    5626:	48 89 cf             	mov    rdi,rcx
    5629:	83 e7 03             	and    edi,0x3
    562c:	48 83 ff 03          	cmp    rdi,0x3
    5630:	0f 85 05 fa ff ff    	jne    503b <dlfree+0x7b>
    5636:	48 83 e1 fe          	and    rcx,0xfffffffffffffffe
    563a:	48 89 43 08          	mov    QWORD PTR [rbx+0x8],rax
    563e:	48 89 4e 08          	mov    QWORD PTR [rsi+0x8],rcx
    5642:	48 89 c1             	mov    rcx,rax
    5645:	48 83 c9 01          	or     rcx,0x1
    5649:	48 89 4a 08          	mov    QWORD PTR [rdx+0x8],rcx
    564d:	48 89 06             	mov    QWORD PTR [rsi],rax
    5650:	e9 5d fa ff ff       	jmp    50b2 <dlfree+0xf2>
    5655:	48 03 43 08          	add    rax,QWORD PTR [rbx+0x8]
    5659:	48 89 53 20          	mov    QWORD PTR [rbx+0x20],rdx
    565d:	48 89 c1             	mov    rcx,rax
    5660:	48 89 43 08          	mov    QWORD PTR [rbx+0x8],rax
    5664:	48 83 c9 01          	or     rcx,0x1
    5668:	48 89 4a 08          	mov    QWORD PTR [rdx+0x8],rcx
    566c:	48 89 04 02          	mov    QWORD PTR [rdx+rax*1],rax
    5670:	e9 3d fa ff ff       	jmp    50b2 <dlfree+0xf2>
    5675:	48 8d 04 ce          	lea    rax,[rsi+rcx*8]
    5679:	48 39 43 18          	cmp    QWORD PTR [rbx+0x18],rax
    567d:	0f 87 49 fd ff ff    	ja     53cc <dlfree+0x40c>
    5683:	48 89 14 ce          	mov    QWORD PTR [rsi+rcx*8],rdx
    5687:	48 89 72 30          	mov    QWORD PTR [rdx+0x30],rsi
    568b:	48 89 52 18          	mov    QWORD PTR [rdx+0x18],rdx
    568f:	48 89 52 10          	mov    QWORD PTR [rdx+0x10],rdx
    5693:	e9 f5 fc ff ff       	jmp    538d <dlfree+0x3cd>
    5698:	48 c7 43 20 00 00 00 	mov    QWORD PTR [rbx+0x20],0x0
    569f:	00 
    56a0:	48 c7 43 08 00 00 00 	mov    QWORD PTR [rbx+0x8],0x0
    56a7:	00 
    56a8:	e9 66 fe ff ff       	jmp    5513 <dlfree+0x553>
    56ad:	48 8b 4a 28          	mov    rcx,QWORD PTR [rdx+0x28]
    56b1:	4c 8d 4a 28          	lea    r9,[rdx+0x28]
    56b5:	48 85 c9             	test   rcx,rcx
    56b8:	0f 84 fe 00 00 00    	je     57bc <dlfree+0x7fc>
    56be:	66 90                	xchg   ax,ax
    56c0:	48 89 cf             	mov    rdi,rcx
    56c3:	48 8b 49 28          	mov    rcx,QWORD PTR [rcx+0x28]
    56c7:	4d 89 ca             	mov    r10,r9
    56ca:	4c 8d 4f 28          	lea    r9,[rdi+0x28]
    56ce:	48 85 c9             	test   rcx,rcx
    56d1:	75 ed                	jne    56c0 <dlfree+0x700>
    56d3:	48 8b 4f 20          	mov    rcx,QWORD PTR [rdi+0x20]
    56d7:	4c 8d 4f 20          	lea    r9,[rdi+0x20]
    56db:	48 85 c9             	test   rcx,rcx
    56de:	75 e0                	jne    56c0 <dlfree+0x700>
    56e0:	4d 39 d0             	cmp    r8,r10
    56e3:	0f 87 e3 fc ff ff    	ja     53cc <dlfree+0x40c>
    56e9:	49 c7 02 00 00 00 00 	mov    QWORD PTR [r10],0x0
    56f0:	e9 45 fa ff ff       	jmp    513a <dlfree+0x17a>
    56f5:	bf fe ff ff ff       	mov    edi,0xfffffffe
    56fa:	d3 c7                	rol    edi,cl
    56fc:	21 3b                	and    DWORD PTR [rbx],edi
    56fe:	e9 38 f9 ff ff       	jmp    503b <dlfree+0x7b>
    5703:	be fe ff ff ff       	mov    esi,0xfffffffe
    5708:	d3 c6                	rol    esi,cl
    570a:	21 33                	and    DWORD PTR [rbx],esi
    570c:	e9 df fb ff ff       	jmp    52f0 <dlfree+0x330>
    5711:	48 8b 4e 28          	mov    rcx,QWORD PTR [rsi+0x28]
    5715:	4c 8d 4e 28          	lea    r9,[rsi+0x28]
    5719:	48 85 c9             	test   rcx,rcx
    571c:	0f 84 e7 00 00 00    	je     5809 <dlfree+0x849>
    5722:	66 0f 1f 44 00 00    	nop    WORD PTR [rax+rax*1+0x0]
    5728:	48 89 cf             	mov    rdi,rcx
    572b:	48 8b 49 28          	mov    rcx,QWORD PTR [rcx+0x28]
    572f:	4d 89 cb             	mov    r11,r9
    5732:	4c 8d 4f 28          	lea    r9,[rdi+0x28]
    5736:	48 85 c9             	test   rcx,rcx
    5739:	75 ed                	jne    5728 <dlfree+0x768>
    573b:	48 8b 4f 20          	mov    rcx,QWORD PTR [rdi+0x20]
    573f:	4c 8d 4f 20          	lea    r9,[rdi+0x20]
    5743:	48 85 c9             	test   rcx,rcx
    5746:	75 e0                	jne    5728 <dlfree+0x768>
    5748:	4d 39 d8             	cmp    r8,r11
    574b:	0f 87 7b fc ff ff    	ja     53cc <dlfree+0x40c>
    5751:	49 c7 03 00 00 00 00 	mov    QWORD PTR [r11],0x0
    5758:	e9 19 fb ff ff       	jmp    5276 <dlfree+0x2b6>
    575d:	48 85 ff             	test   rdi,rdi
    5760:	49 89 b9 58 02 00 00 	mov    QWORD PTR [r9+0x258],rdi
    5767:	0f 85 0e fa ff ff    	jne    517b <dlfree+0x1bb>
    576d:	bf fe ff ff ff       	mov    edi,0xfffffffe
    5772:	d3 c7                	rol    edi,cl
    5774:	21 7b 04             	and    DWORD PTR [rbx+0x4],edi
    5777:	e9 bf f8 ff ff       	jmp    503b <dlfree+0x7b>
    577c:	48 85 ff             	test   rdi,rdi
    577f:	49 89 b9 58 02 00 00 	mov    QWORD PTR [r9+0x258],rdi
    5786:	0f 85 23 fb ff ff    	jne    52af <dlfree+0x2ef>
    578c:	be fe ff ff ff       	mov    esi,0xfffffffe
    5791:	d3 c6                	rol    esi,cl
    5793:	21 73 04             	and    DWORD PTR [rbx+0x4],esi
    5796:	e9 55 fb ff ff       	jmp    52f0 <dlfree+0x330>
    579b:	49 89 7b 20          	mov    QWORD PTR [r11+0x20],rdi
    579f:	e9 ce f9 ff ff       	jmp    5172 <dlfree+0x1b2>
    57a4:	4d 39 c8             	cmp    r8,r9
    57a7:	0f 87 1f fc ff ff    	ja     53cc <dlfree+0x40c>
    57ad:	49 39 51 18          	cmp    QWORD PTR [r9+0x18],rdx
    57b1:	0f 84 ad fc ff ff    	je     5464 <dlfree+0x4a4>
    57b7:	e9 10 fc ff ff       	jmp    53cc <dlfree+0x40c>
    57bc:	48 8b 4a 20          	mov    rcx,QWORD PTR [rdx+0x20]
    57c0:	4c 8d 4a 20          	lea    r9,[rdx+0x20]
    57c4:	48 85 c9             	test   rcx,rcx
    57c7:	0f 85 f3 fe ff ff    	jne    56c0 <dlfree+0x700>
    57cd:	4d 85 db             	test   r11,r11
    57d0:	0f 84 65 f8 ff ff    	je     503b <dlfree+0x7b>
    57d6:	8b 7a 38             	mov    edi,DWORD PTR [rdx+0x38]
    57d9:	4c 8d 0c fb          	lea    r9,[rbx+rdi*8]
    57dd:	48 89 f9             	mov    rcx,rdi
    57e0:	31 ff                	xor    edi,edi
    57e2:	49 39 91 58 02 00 00 	cmp    QWORD PTR [r9+0x258],rdx
    57e9:	0f 85 6c f9 ff ff    	jne    515b <dlfree+0x19b>
    57ef:	49 c7 81 58 02 00 00 	mov    QWORD PTR [r9+0x258],0x0
    57f6:	00 00 00 00 
    57fa:	e9 6e ff ff ff       	jmp    576d <dlfree+0x7ad>
    57ff:	90                   	nop
    5800:	48 89 7d 20          	mov    QWORD PTR [rbp+0x20],rdi
    5804:	e9 a1 fa ff ff       	jmp    52aa <dlfree+0x2ea>
    5809:	48 8b 4e 20          	mov    rcx,QWORD PTR [rsi+0x20]
    580d:	48 85 c9             	test   rcx,rcx
    5810:	74 51                	je     5863 <dlfree+0x8a3>
    5812:	4c 8d 4e 20          	lea    r9,[rsi+0x20]
    5816:	e9 0d ff ff ff       	jmp    5728 <dlfree+0x768>
    581b:	4d 39 c8             	cmp    r8,r9
    581e:	0f 87 a8 fb ff ff    	ja     53cc <dlfree+0x40c>
    5824:	49 39 71 18          	cmp    QWORD PTR [r9+0x18],rsi
    5828:	0f 84 6b fc ff ff    	je     5499 <dlfree+0x4d9>
    582e:	e9 99 fb ff ff       	jmp    53cc <dlfree+0x40c>
    5833:	49 39 f8             	cmp    r8,rdi
    5836:	0f 87 90 fb ff ff    	ja     53cc <dlfree+0x40c>
    583c:	48 39 57 10          	cmp    QWORD PTR [rdi+0x10],rdx
    5840:	0f 84 30 fc ff ff    	je     5476 <dlfree+0x4b6>
    5846:	e9 81 fb ff ff       	jmp    53cc <dlfree+0x40c>
    584b:	49 39 f8             	cmp    r8,rdi
    584e:	0f 87 78 fb ff ff    	ja     53cc <dlfree+0x40c>
    5854:	48 39 77 10          	cmp    QWORD PTR [rdi+0x10],rsi
    5858:	0f 84 4d fc ff ff    	je     54ab <dlfree+0x4eb>
    585e:	e9 69 fb ff ff       	jmp    53cc <dlfree+0x40c>
    5863:	48 85 ed             	test   rbp,rbp
    5866:	0f 84 84 fa ff ff    	je     52f0 <dlfree+0x330>
    586c:	8b 7e 38             	mov    edi,DWORD PTR [rsi+0x38]
    586f:	4c 8d 0c fb          	lea    r9,[rbx+rdi*8]
    5873:	48 89 f9             	mov    rcx,rdi
    5876:	31 ff                	xor    edi,edi
    5878:	49 39 b1 58 02 00 00 	cmp    QWORD PTR [r9+0x258],rsi
    587f:	0f 85 0e fa ff ff    	jne    5293 <dlfree+0x2d3>
    5885:	49 c7 81 58 02 00 00 	mov    QWORD PTR [r9+0x258],0x0
    588c:	00 00 00 00 
    5890:	e9 f7 fe ff ff       	jmp    578c <dlfree+0x7cc>
    5895:	4c 89 e7             	mov    rdi,r12
    5898:	48 f7 df             	neg    rdi
    589b:	e8 90 02 00 00       	call   5b30 <sbrk>
    58a0:	31 ff                	xor    edi,edi
    58a2:	49 89 c4             	mov    r12,rax
    58a5:	e8 86 02 00 00       	call   5b30 <sbrk>
    58aa:	49 83 c4 01          	add    r12,0x1
    58ae:	c7 05 38 3c 20 00 00 	mov    DWORD PTR [rip+0x203c38],0x0        # 2094f0 <malloc_global_mutex>
    58b5:	00 00 00 
    58b8:	74 6c                	je     5926 <dlfree+0x966>
    58ba:	49 39 c5             	cmp    r13,rax
    58bd:	76 67                	jbe    5926 <dlfree+0x966>
    58bf:	49 29 c5             	sub    r13,rax
    58c2:	74 62                	je     5926 <dlfree+0x966>
    58c4:	48 8b 4b 28          	mov    rcx,QWORD PTR [rbx+0x28]
    58c8:	48 8b 53 10          	mov    rdx,QWORD PTR [rbx+0x10]
    58cc:	4c 29 6d 08          	sub    QWORD PTR [rbp+0x8],r13
    58d0:	4c 29 ab 58 03 00 00 	sub    QWORD PTR [rbx+0x358],r13
    58d7:	48 8d 41 10          	lea    rax,[rcx+0x10]
    58db:	4c 29 ea             	sub    rdx,r13
    58de:	a8 0f                	test   al,0xf
    58e0:	74 3c                	je     591e <dlfree+0x95e>
    58e2:	48 f7 d8             	neg    rax
    58e5:	48 89 d7             	mov    rdi,rdx
    58e8:	83 e0 0f             	and    eax,0xf
    58eb:	48 29 c7             	sub    rdi,rax
    58ee:	48 8d 34 01          	lea    rsi,[rcx+rax*1]
    58f2:	48 89 f8             	mov    rax,rdi
    58f5:	48 89 43 10          	mov    QWORD PTR [rbx+0x10],rax
    58f9:	48 83 c8 01          	or     rax,0x1
    58fd:	48 89 73 28          	mov    QWORD PTR [rbx+0x28],rsi
    5901:	48 89 46 08          	mov    QWORD PTR [rsi+0x8],rax
    5905:	48 8b 05 d4 3b 20 00 	mov    rax,QWORD PTR [rip+0x203bd4]        # 2094e0 <mparams+0x20>
    590c:	48 c7 44 11 08 50 00 	mov    QWORD PTR [rcx+rdx*1+0x8],0x50
    5913:	00 00 
    5915:	48 89 43 30          	mov    QWORD PTR [rbx+0x30],rax
    5919:	e9 94 f7 ff ff       	jmp    50b2 <dlfree+0xf2>
    591e:	48 89 d0             	mov    rax,rdx
    5921:	48 89 ce             	mov    rsi,rcx
    5924:	eb cf                	jmp    58f5 <dlfree+0x935>
    5926:	48 8b 4b 10          	mov    rcx,QWORD PTR [rbx+0x10]
    592a:	e9 dc fc ff ff       	jmp    560b <dlfree+0x64b>
    592f:	90                   	nop

0000000000005930 <__memcpy>:
    5930:	48 85 d2             	test   rdx,rdx
    5933:	48 89 f8             	mov    rax,rdi
    5936:	74 7e                	je     59b6 <__memcpy+0x86>
    5938:	48 39 f7             	cmp    rdi,rsi
    593b:	74 79                	je     59b6 <__memcpy+0x86>
    593d:	48 39 f7             	cmp    rdi,rsi
    5940:	73 0d                	jae    594f <__memcpy+0x1f>
    5942:	48 8d 0c 17          	lea    rcx,[rdi+rdx*1]
    5946:	48 39 ce             	cmp    rsi,rcx
    5949:	0f 82 c8 00 00 00    	jb     5a17 <__memcpy+0xe7>
    594f:	48 39 f0             	cmp    rax,rsi
    5952:	76 0d                	jbe    5961 <__memcpy+0x31>
    5954:	48 8d 0c 16          	lea    rcx,[rsi+rdx*1]
    5958:	48 39 c8             	cmp    rax,rcx
    595b:	0f 82 b6 00 00 00    	jb     5a17 <__memcpy+0xe7>
    5961:	48 89 f1             	mov    rcx,rsi
    5964:	48 09 c1             	or     rcx,rax
    5967:	83 e1 07             	and    ecx,0x7
    596a:	75 54                	jne    59c0 <__memcpy+0x90>
    596c:	48 89 d1             	mov    rcx,rdx
    596f:	83 e2 07             	and    edx,0x7
    5972:	48 89 c7             	mov    rdi,rax
    5975:	48 c1 e9 03          	shr    rcx,0x3
    5979:	49 89 d0             	mov    r8,rdx
    597c:	48 85 c9             	test   rcx,rcx
    597f:	74 26                	je     59a7 <__memcpy+0x77>
    5981:	4c 8d 0c cd 00 00 00 	lea    r9,[rcx*8+0x0]
    5988:	00 
    5989:	48 89 f9             	mov    rcx,rdi
    598c:	4e 8d 14 0e          	lea    r10,[rsi+r9*1]
    5990:	48 8b 16             	mov    rdx,QWORD PTR [rsi]
    5993:	48 83 c6 08          	add    rsi,0x8
    5997:	48 83 c1 08          	add    rcx,0x8
    599b:	48 89 51 f8          	mov    QWORD PTR [rcx-0x8],rdx
    599f:	49 39 f2             	cmp    r10,rsi
    59a2:	75 ec                	jne    5990 <__memcpy+0x60>
    59a4:	4c 01 cf             	add    rdi,r9
    59a7:	4d 85 c0             	test   r8,r8
    59aa:	74 0a                	je     59b6 <__memcpy+0x86>
    59ac:	4a 8d 14 06          	lea    rdx,[rsi+r8*1]
    59b0:	a4                   	movs   BYTE PTR es:[rdi],BYTE PTR ds:[rsi]
    59b1:	48 39 d6             	cmp    rsi,rdx
    59b4:	75 fa                	jne    59b0 <__memcpy+0x80>
    59b6:	f3 c3                	repz ret 
    59b8:	0f 1f 84 00 00 00 00 	nop    DWORD PTR [rax+rax*1+0x0]
    59bf:	00 
    59c0:	48 89 f1             	mov    rcx,rsi
    59c3:	48 31 c1             	xor    rcx,rax
    59c6:	83 e1 07             	and    ecx,0x7
    59c9:	75 2d                	jne    59f8 <__memcpy+0xc8>
    59cb:	48 83 fa 07          	cmp    rdx,0x7
    59cf:	76 27                	jbe    59f8 <__memcpy+0xc8>
    59d1:	48 89 f1             	mov    rcx,rsi
    59d4:	bf 08 00 00 00       	mov    edi,0x8
    59d9:	83 e1 07             	and    ecx,0x7
    59dc:	48 29 cf             	sub    rdi,rcx
    59df:	48 29 fa             	sub    rdx,rdi
    59e2:	48 89 d1             	mov    rcx,rdx
    59e5:	83 e2 07             	and    edx,0x7
    59e8:	49 89 d0             	mov    r8,rdx
    59eb:	48 c1 e9 03          	shr    rcx,0x3
    59ef:	48 89 fa             	mov    rdx,rdi
    59f2:	eb 09                	jmp    59fd <__memcpy+0xcd>
    59f4:	0f 1f 40 00          	nop    DWORD PTR [rax+0x0]
    59f8:	45 31 c0             	xor    r8d,r8d
    59fb:	31 c9                	xor    ecx,ecx
    59fd:	4c 8d 0c 16          	lea    r9,[rsi+rdx*1]
    5a01:	48 89 c7             	mov    rdi,rax
    5a04:	0f 1f 40 00          	nop    DWORD PTR [rax+0x0]
    5a08:	a4                   	movs   BYTE PTR es:[rdi],BYTE PTR ds:[rsi]
    5a09:	4c 39 ce             	cmp    rsi,r9
    5a0c:	75 fa                	jne    5a08 <__memcpy+0xd8>
    5a0e:	48 8d 3c 10          	lea    rdi,[rax+rdx*1]
    5a12:	e9 65 ff ff ff       	jmp    597c <__memcpy+0x4c>
    5a17:	48 83 ec 08          	sub    rsp,0x8
    5a1b:	e8 89 11 00 00       	call   6ba9 <abort>

0000000000005a20 <memcpy>:
    5a20:	e9 0b ff ff ff       	jmp    5930 <__memcpy>

0000000000005a25 <__memset>:
    5a25:	48 89 7c 24 e8       	mov    QWORD PTR [rsp-0x18],rdi
    5a2a:	89 74 24 e4          	mov    DWORD PTR [rsp-0x1c],esi
    5a2e:	48 89 54 24 d8       	mov    QWORD PTR [rsp-0x28],rdx
    5a33:	48 83 7c 24 d8 00    	cmp    QWORD PTR [rsp-0x28],0x0
    5a39:	74 2c                	je     5a67 <__memset+0x42>
    5a3b:	48 8b 44 24 e8       	mov    rax,QWORD PTR [rsp-0x18]
    5a40:	48 89 44 24 f8       	mov    QWORD PTR [rsp-0x8],rax
    5a45:	48 8b 44 24 f8       	mov    rax,QWORD PTR [rsp-0x8]
    5a4a:	48 8d 50 01          	lea    rdx,[rax+0x1]
    5a4e:	48 89 54 24 f8       	mov    QWORD PTR [rsp-0x8],rdx
    5a53:	8b 54 24 e4          	mov    edx,DWORD PTR [rsp-0x1c]
    5a57:	88 10                	mov    BYTE PTR [rax],dl
    5a59:	48 83 6c 24 d8 01    	sub    QWORD PTR [rsp-0x28],0x1
    5a5f:	48 83 7c 24 d8 00    	cmp    QWORD PTR [rsp-0x28],0x0
    5a65:	75 de                	jne    5a45 <__memset+0x20>
    5a67:	48 8b 44 24 e8       	mov    rax,QWORD PTR [rsp-0x18]
    5a6c:	c3                   	ret    

0000000000005a6d <memset>:
    5a6d:	e9 b3 ff ff ff       	jmp    5a25 <__memset>
    5a72:	66 2e 0f 1f 84 00 00 	nop    WORD PTR cs:[rax+rax*1+0x0]
    5a79:	00 00 00 
    5a7c:	0f 1f 40 00          	nop    DWORD PTR [rax+0x0]

0000000000005a80 <memset_s>:
    5a80:	48 85 ff             	test   rdi,rdi
    5a83:	53                   	push   rbx
    5a84:	74 42                	je     5ac8 <memset_s+0x48>
    5a86:	48 39 f1             	cmp    rcx,rsi
    5a89:	89 d0                	mov    eax,edx
    5a8b:	76 23                	jbe    5ab0 <memset_s+0x30>
    5a8d:	bb 4b 00 00 00       	mov    ebx,0x4b
    5a92:	48 89 f2             	mov    rdx,rsi
    5a95:	48 8b 0d 94 35 20 00 	mov    rcx,QWORD PTR [rip+0x203594]        # 209030 <__memset_vp>
    5a9c:	89 c6                	mov    esi,eax
    5a9e:	ff d1                	call   rcx
    5aa0:	e8 9b 03 00 00       	call   5e40 <__errno>
    5aa5:	89 18                	mov    DWORD PTR [rax],ebx
    5aa7:	89 d8                	mov    eax,ebx
    5aa9:	5b                   	pop    rbx
    5aaa:	c3                   	ret    
    5aab:	0f 1f 44 00 00       	nop    DWORD PTR [rax+rax*1+0x0]
    5ab0:	31 db                	xor    ebx,ebx
    5ab2:	4c 8b 05 77 35 20 00 	mov    r8,QWORD PTR [rip+0x203577]        # 209030 <__memset_vp>
    5ab9:	48 89 ca             	mov    rdx,rcx
    5abc:	89 c6                	mov    esi,eax
    5abe:	41 ff d0             	call   r8
    5ac1:	89 d8                	mov    eax,ebx
    5ac3:	5b                   	pop    rbx
    5ac4:	c3                   	ret    
    5ac5:	0f 1f 00             	nop    DWORD PTR [rax]
    5ac8:	bb 16 00 00 00       	mov    ebx,0x16
    5acd:	eb d1                	jmp    5aa0 <memset_s+0x20>
    5acf:	90                   	nop

0000000000005ad0 <heap_init>:
    5ad0:	48 83 3d 48 33 20 00 	cmp    QWORD PTR [rip+0x203348],0x0        # 208e20 <heap_base>
    5ad7:	00 
    5ad8:	b8 01 00 00 00       	mov    eax,0x1
    5add:	75 05                	jne    5ae4 <heap_init+0x14>
    5adf:	48 85 ff             	test   rdi,rdi
    5ae2:	75 0c                	jne    5af0 <heap_init+0x20>
    5ae4:	f3 c3                	repz ret 
    5ae6:	66 2e 0f 1f 84 00 00 	nop    WORD PTR cs:[rax+rax*1+0x0]
    5aed:	00 00 00 
    5af0:	f7 c7 ff 0f 00 00    	test   edi,0xfff
    5af6:	75 ec                	jne    5ae4 <heap_init+0x14>
    5af8:	49 89 f0             	mov    r8,rsi
    5afb:	49 09 d0             	or     r8,rdx
    5afe:	41 f7 c0 ff 0f 00 00 	test   r8d,0xfff
    5b05:	75 dd                	jne    5ae4 <heap_init+0x14>
    5b07:	48 89 3d 12 33 20 00 	mov    QWORD PTR [rip+0x203312],rdi        # 208e20 <heap_base>
    5b0e:	48 89 35 03 33 20 00 	mov    QWORD PTR [rip+0x203303],rsi        # 208e18 <heap_size>
    5b15:	31 c0                	xor    eax,eax
    5b17:	48 89 15 ea 32 20 00 	mov    QWORD PTR [rip+0x2032ea],rdx        # 208e08 <heap_min_size>
    5b1e:	89 0d ec 32 20 00    	mov    DWORD PTR [rip+0x2032ec],ecx        # 208e10 <is_edmm_supported>
    5b24:	c3                   	ret    
    5b25:	66 2e 0f 1f 84 00 00 	nop    WORD PTR cs:[rax+rax*1+0x0]
    5b2c:	00 00 00 
    5b2f:	90                   	nop

0000000000005b30 <sbrk>:
    5b30:	55                   	push   rbp
    5b31:	53                   	push   rbx
    5b32:	48 c7 c3 ff ff ff ff 	mov    rbx,0xffffffffffffffff
    5b39:	48 83 ec 08          	sub    rsp,0x8
    5b3d:	48 8b 15 dc 32 20 00 	mov    rdx,QWORD PTR [rip+0x2032dc]        # 208e20 <heap_base>
    5b44:	48 85 d2             	test   rdx,rdx
    5b47:	0f 84 87 00 00 00    	je     5bd4 <sbrk+0xa4>
    5b4d:	48 85 ff             	test   rdi,rdi
    5b50:	48 8b 2d a1 39 20 00 	mov    rbp,QWORD PTR [rip+0x2039a1]        # 2094f8 <heap_used.2394>
    5b57:	0f 88 83 00 00 00    	js     5be0 <sbrk+0xb0>
    5b5d:	48 89 f8             	mov    rax,rdi
    5b60:	48 f7 d0             	not    rax
    5b63:	48 39 e8             	cmp    rax,rbp
    5b66:	72 6c                	jb     5bd4 <sbrk+0xa4>
    5b68:	48 8d 04 2f          	lea    rax,[rdi+rbp*1]
    5b6c:	48 3b 05 a5 32 20 00 	cmp    rax,QWORD PTR [rip+0x2032a5]        # 208e18 <heap_size>
    5b73:	77 5f                	ja     5bd4 <sbrk+0xa4>
    5b75:	48 39 05 84 39 20 00 	cmp    QWORD PTR [rip+0x203984],rax        # 209500 <g_peak_heap_used>
    5b7c:	48 89 c1             	mov    rcx,rax
    5b7f:	48 8d 1c 2a          	lea    rbx,[rdx+rbp*1]
    5b83:	48 0f 43 0d 75 39 20 	cmovae rcx,QWORD PTR [rip+0x203975]        # 209500 <g_peak_heap_used>
    5b8a:	00 
    5b8b:	48 89 05 66 39 20 00 	mov    QWORD PTR [rip+0x203966],rax        # 2094f8 <heap_used.2394>
    5b92:	48 89 0d 67 39 20 00 	mov    QWORD PTR [rip+0x203967],rcx        # 209500 <g_peak_heap_used>
    5b99:	8b 0d 71 32 20 00    	mov    ecx,DWORD PTR [rip+0x203271]        # 208e10 <is_edmm_supported>
    5b9f:	85 c9                	test   ecx,ecx
    5ba1:	74 31                	je     5bd4 <sbrk+0xa4>
    5ba3:	48 8b 0d 5e 32 20 00 	mov    rcx,QWORD PTR [rip+0x20325e]        # 208e08 <heap_min_size>
    5baa:	48 39 c8             	cmp    rax,rcx
    5bad:	76 25                	jbe    5bd4 <sbrk+0xa4>
    5baf:	48 39 e9             	cmp    rcx,rbp
    5bb2:	49 89 d8             	mov    r8,rbx
    5bb5:	72 0a                	jb     5bc1 <sbrk+0x91>
    5bb7:	48 29 c8             	sub    rax,rcx
    5bba:	4c 8d 04 0a          	lea    r8,[rdx+rcx*1]
    5bbe:	48 89 c7             	mov    rdi,rax
    5bc1:	48 89 fe             	mov    rsi,rdi
    5bc4:	4c 89 c7             	mov    rdi,r8
    5bc7:	48 c1 ee 0c          	shr    rsi,0xc
    5bcb:	e8 e0 b7 ff ff       	call   13b0 <apply_EPC_pages>
    5bd0:	85 c0                	test   eax,eax
    5bd2:	75 5b                	jne    5c2f <sbrk+0xff>
    5bd4:	48 83 c4 08          	add    rsp,0x8
    5bd8:	48 89 d8             	mov    rax,rbx
    5bdb:	5b                   	pop    rbx
    5bdc:	5d                   	pop    rbp
    5bdd:	c3                   	ret    
    5bde:	66 90                	xchg   ax,ax
    5be0:	48 89 fe             	mov    rsi,rdi
    5be3:	48 f7 de             	neg    rsi
    5be6:	48 39 ee             	cmp    rsi,rbp
    5be9:	77 e9                	ja     5bd4 <sbrk+0xa4>
    5beb:	48 8d 04 2f          	lea    rax,[rdi+rbp*1]
    5bef:	8b 3d 1b 32 20 00    	mov    edi,DWORD PTR [rip+0x20321b]        # 208e10 <is_edmm_supported>
    5bf5:	48 89 05 fc 38 20 00 	mov    QWORD PTR [rip+0x2038fc],rax        # 2094f8 <heap_used.2394>
    5bfc:	48 8d 1c 02          	lea    rbx,[rdx+rax*1]
    5c00:	85 ff                	test   edi,edi
    5c02:	74 d0                	je     5bd4 <sbrk+0xa4>
    5c04:	48 8b 0d fd 31 20 00 	mov    rcx,QWORD PTR [rip+0x2031fd]        # 208e08 <heap_min_size>
    5c0b:	48 39 e9             	cmp    rcx,rbp
    5c0e:	73 c4                	jae    5bd4 <sbrk+0xa4>
    5c10:	48 39 c1             	cmp    rcx,rax
    5c13:	48 89 df             	mov    rdi,rbx
    5c16:	72 0a                	jb     5c22 <sbrk+0xf2>
    5c18:	48 89 ee             	mov    rsi,rbp
    5c1b:	48 8d 3c 0a          	lea    rdi,[rdx+rcx*1]
    5c1f:	48 29 ce             	sub    rsi,rcx
    5c22:	48 c1 ee 0c          	shr    rsi,0xc
    5c26:	e8 05 b8 ff ff       	call   1430 <trim_EPC_pages>
    5c2b:	85 c0                	test   eax,eax
    5c2d:	74 a5                	je     5bd4 <sbrk+0xa4>
    5c2f:	48 89 2d c2 38 20 00 	mov    QWORD PTR [rip+0x2038c2],rbp        # 2094f8 <heap_used.2394>
    5c36:	48 c7 c3 ff ff ff ff 	mov    rbx,0xffffffffffffffff
    5c3d:	eb 95                	jmp    5bd4 <sbrk+0xa4>
    5c3f:	90                   	nop

0000000000005c40 <sgx_init_string_lib>:
    5c40:	31 c0                	xor    eax,eax
    5c42:	c3                   	ret    
    5c43:	66 2e 0f 1f 84 00 00 	nop    WORD PTR cs:[rax+rax*1+0x0]
    5c4a:	00 00 00 
    5c4d:	0f 1f 00             	nop    DWORD PTR [rax]

0000000000005c50 <sgx_spin_lock>:
    5c50:	48 83 ec 18          	sub    rsp,0x18
    5c54:	ba 01 00 00 00       	mov    edx,0x1
    5c59:	64 48 8b 04 25 28 00 	mov    rax,QWORD PTR fs:0x28
    5c60:	00 00 
    5c62:	48 89 44 24 08       	mov    QWORD PTR [rsp+0x8],rax
    5c67:	31 c0                	xor    eax,eax
    5c69:	0f 1f 80 00 00 00 00 	nop    DWORD PTR [rax+0x0]
    5c70:	f0 87 17             	lock xchg DWORD PTR [rdi],edx
    5c73:	89 54 24 04          	mov    DWORD PTR [rsp+0x4],edx
    5c77:	8b 44 24 04          	mov    eax,DWORD PTR [rsp+0x4]
    5c7b:	85 c0                	test   eax,eax
    5c7d:	74 11                	je     5c90 <sgx_spin_lock+0x40>
    5c7f:	90                   	nop
    5c80:	8b 07                	mov    eax,DWORD PTR [rdi]
    5c82:	85 c0                	test   eax,eax
    5c84:	74 ea                	je     5c70 <sgx_spin_lock+0x20>
    5c86:	f3 90                	pause  
    5c88:	eb f6                	jmp    5c80 <sgx_spin_lock+0x30>
    5c8a:	66 0f 1f 44 00 00    	nop    WORD PTR [rax+rax*1+0x0]
    5c90:	31 c0                	xor    eax,eax
    5c92:	48 8b 4c 24 08       	mov    rcx,QWORD PTR [rsp+0x8]
    5c97:	64 48 33 0c 25 28 00 	xor    rcx,QWORD PTR fs:0x28
    5c9e:	00 00 
    5ca0:	75 05                	jne    5ca7 <sgx_spin_lock+0x57>
    5ca2:	48 83 c4 18          	add    rsp,0x18
    5ca6:	c3                   	ret    
    5ca7:	e8 f4 d7 ff ff       	call   34a0 <__stack_chk_fail>
    5cac:	0f 1f 40 00          	nop    DWORD PTR [rax+0x0]

0000000000005cb0 <sgx_spin_unlock>:
    5cb0:	c7 07 00 00 00 00    	mov    DWORD PTR [rdi],0x0
    5cb6:	31 c0                	xor    eax,eax
    5cb8:	c3                   	ret    

0000000000005cb9 <_setjmp>:
    5cb9:	50                   	push   rax
    5cba:	53                   	push   rbx
    5cbb:	51                   	push   rcx
    5cbc:	52                   	push   rdx
    5cbd:	56                   	push   rsi
    5cbe:	57                   	push   rdi
    5cbf:	41 50                	push   r8
    5cc1:	41 51                	push   r9
    5cc3:	41 52                	push   r10
    5cc5:	41 53                	push   r11
    5cc7:	41 54                	push   r12
    5cc9:	41 55                	push   r13
    5ccb:	41 56                	push   r14
    5ccd:	41 57                	push   r15
    5ccf:	48 c7 c6 08 00 00 00 	mov    rsi,0x8
    5cd6:	e8 d5 aa ff ff       	call   7b0 <sgx_is_within_enclave>
    5cdb:	83 f8 00             	cmp    eax,0x0
    5cde:	74 60                	je     5d40 <.crash>
    5ce0:	41 5f                	pop    r15
    5ce2:	41 5e                	pop    r14
    5ce4:	41 5d                	pop    r13
    5ce6:	41 5c                	pop    r12
    5ce8:	41 5b                	pop    r11
    5cea:	41 5a                	pop    r10
    5cec:	41 59                	pop    r9
    5cee:	41 58                	pop    r8
    5cf0:	5f                   	pop    rdi
    5cf1:	5e                   	pop    rsi
    5cf2:	5a                   	pop    rdx
    5cf3:	59                   	pop    rcx
    5cf4:	5b                   	pop    rbx
    5cf5:	58                   	pop    rax
    5cf6:	4c 8b 1c 24          	mov    r11,QWORD PTR [rsp]
    5cfa:	48 89 1f             	mov    QWORD PTR [rdi],rbx
    5cfd:	48 89 6f 08          	mov    QWORD PTR [rdi+0x8],rbp
    5d01:	4c 89 67 10          	mov    QWORD PTR [rdi+0x10],r12
    5d05:	4c 89 6f 18          	mov    QWORD PTR [rdi+0x18],r13
    5d09:	4c 89 77 20          	mov    QWORD PTR [rdi+0x20],r14
    5d0d:	4c 89 7f 28          	mov    QWORD PTR [rdi+0x28],r15
    5d11:	48 89 67 30          	mov    QWORD PTR [rdi+0x30],rsp
    5d15:	4c 89 5f 38          	mov    QWORD PTR [rdi+0x38],r11
    5d19:	e8 66 0b 00 00       	call   6884 <get_stack_guard>
    5d1e:	48 31 07             	xor    QWORD PTR [rdi],rax
    5d21:	48 31 47 08          	xor    QWORD PTR [rdi+0x8],rax
    5d25:	48 31 47 10          	xor    QWORD PTR [rdi+0x10],rax
    5d29:	48 31 47 18          	xor    QWORD PTR [rdi+0x18],rax
    5d2d:	48 31 47 20          	xor    QWORD PTR [rdi+0x20],rax
    5d31:	48 31 47 28          	xor    QWORD PTR [rdi+0x28],rax
    5d35:	48 31 47 30          	xor    QWORD PTR [rdi+0x30],rax
    5d39:	48 31 47 38          	xor    QWORD PTR [rdi+0x38],rax
    5d3d:	31 c0                	xor    eax,eax
    5d3f:	c3                   	ret    

0000000000005d40 <.crash>:
    5d40:	0f 0b                	ud2    

0000000000005d42 <_longjmp>:
    5d42:	50                   	push   rax
    5d43:	53                   	push   rbx
    5d44:	51                   	push   rcx
    5d45:	52                   	push   rdx
    5d46:	56                   	push   rsi
    5d47:	57                   	push   rdi
    5d48:	41 50                	push   r8
    5d4a:	41 51                	push   r9
    5d4c:	41 52                	push   r10
    5d4e:	41 53                	push   r11
    5d50:	41 54                	push   r12
    5d52:	41 55                	push   r13
    5d54:	41 56                	push   r14
    5d56:	41 57                	push   r15
    5d58:	57                   	push   rdi
    5d59:	48 c7 c6 08 00 00 00 	mov    rsi,0x8
    5d60:	e8 4b aa ff ff       	call   7b0 <sgx_is_within_enclave>
    5d65:	83 f8 00             	cmp    eax,0x0
    5d68:	74 d6                	je     5d40 <.crash>
    5d6a:	5f                   	pop    rdi
    5d6b:	48 8b 57 30          	mov    rdx,QWORD PTR [rdi+0x30]
    5d6f:	e8 10 0b 00 00       	call   6884 <get_stack_guard>
    5d74:	48 31 c2             	xor    rdx,rax
    5d77:	52                   	push   rdx
    5d78:	5f                   	pop    rdi
    5d79:	e8 22 c8 ff ff       	call   25a0 <is_valid_sp>
    5d7e:	83 f8 00             	cmp    eax,0x0
    5d81:	74 bd                	je     5d40 <.crash>
    5d83:	41 5f                	pop    r15
    5d85:	41 5e                	pop    r14
    5d87:	41 5d                	pop    r13
    5d89:	41 5c                	pop    r12
    5d8b:	41 5b                	pop    r11
    5d8d:	41 5a                	pop    r10
    5d8f:	41 59                	pop    r9
    5d91:	41 58                	pop    r8
    5d93:	5f                   	pop    rdi
    5d94:	5e                   	pop    rsi
    5d95:	5a                   	pop    rdx
    5d96:	59                   	pop    rcx
    5d97:	5b                   	pop    rbx
    5d98:	58                   	pop    rax
    5d99:	89 f0                	mov    eax,esi
    5d9b:	48 8b 1f             	mov    rbx,QWORD PTR [rdi]
    5d9e:	48 8b 77 08          	mov    rsi,QWORD PTR [rdi+0x8]
    5da2:	4c 8b 67 10          	mov    r12,QWORD PTR [rdi+0x10]
    5da6:	4c 8b 6f 18          	mov    r13,QWORD PTR [rdi+0x18]
    5daa:	4c 8b 77 20          	mov    r14,QWORD PTR [rdi+0x20]
    5dae:	4c 8b 7f 28          	mov    r15,QWORD PTR [rdi+0x28]
    5db2:	48 8b 57 30          	mov    rdx,QWORD PTR [rdi+0x30]
    5db6:	48 8b 4f 38          	mov    rcx,QWORD PTR [rdi+0x38]
    5dba:	50                   	push   rax
    5dbb:	e8 c4 0a 00 00       	call   6884 <get_stack_guard>
    5dc0:	48 31 c3             	xor    rbx,rax
    5dc3:	48 31 c6             	xor    rsi,rax
    5dc6:	49 31 c4             	xor    r12,rax
    5dc9:	49 31 c5             	xor    r13,rax
    5dcc:	49 31 c6             	xor    r14,rax
    5dcf:	49 31 c7             	xor    r15,rax
    5dd2:	48 31 c2             	xor    rdx,rax
    5dd5:	48 31 c1             	xor    rcx,rax
    5dd8:	58                   	pop    rax
    5dd9:	48 89 f5             	mov    rbp,rsi
    5ddc:	48 89 0a             	mov    QWORD PTR [rdx],rcx
    5ddf:	48 89 d4             	mov    rsp,rdx
    5de2:	85 c0                	test   eax,eax
    5de4:	75 02                	jne    5de8 <_longjmp+0xa6>
    5de6:	ff c0                	inc    eax
    5de8:	c3                   	ret    
    5de9:	0f 1f 80 00 00 00 00 	nop    DWORD PTR [rax+0x0]

0000000000005df0 <rsrv_mem_init>:
    5df0:	48 85 ff             	test   rdi,rdi
    5df3:	b8 01 00 00 00       	mov    eax,0x1
    5df8:	74 11                	je     5e0b <rsrv_mem_init+0x1b>
    5dfa:	48 89 f1             	mov    rcx,rsi
    5dfd:	48 09 d1             	or     rcx,rdx
    5e00:	48 09 f9             	or     rcx,rdi
    5e03:	f7 c1 ff 0f 00 00    	test   ecx,0xfff
    5e09:	74 05                	je     5e10 <rsrv_mem_init+0x20>
    5e0b:	f3 c3                	repz ret 
    5e0d:	0f 1f 00             	nop    DWORD PTR [rax]
    5e10:	48 8b 0d 21 30 20 00 	mov    rcx,QWORD PTR [rip+0x203021]        # 208e38 <rsrv_mem_base>
    5e17:	48 f7 d1             	not    rcx
    5e1a:	48 39 f1             	cmp    rcx,rsi
    5e1d:	72 ec                	jb     5e0b <rsrv_mem_init+0x1b>
    5e1f:	48 89 3d 12 30 20 00 	mov    QWORD PTR [rip+0x203012],rdi        # 208e38 <rsrv_mem_base>
    5e26:	48 89 35 03 30 20 00 	mov    QWORD PTR [rip+0x203003],rsi        # 208e30 <rsrv_mem_size>
    5e2d:	31 c0                	xor    eax,eax
    5e2f:	48 89 15 f2 2f 20 00 	mov    QWORD PTR [rip+0x202ff2],rdx        # 208e28 <rsrv_mem_min_size>
    5e36:	c3                   	ret    
    5e37:	66 0f 1f 84 00 00 00 	nop    WORD PTR [rax+rax*1+0x0]
    5e3e:	00 00 

0000000000005e40 <__errno>:
    5e40:	e9 ab c6 ff ff       	jmp    24f0 <get_errno_addr>
    5e45:	66 2e 0f 1f 84 00 00 	nop    WORD PTR cs:[rax+rax*1+0x0]
    5e4c:	00 00 00 
    5e4f:	90                   	nop

0000000000005e50 <sgx_init_crypto_lib>:
    5e50:	e9 0b 00 00 00       	jmp    5e60 <init_ipp_cpuid>
    5e55:	66 2e 0f 1f 84 00 00 	nop    WORD PTR cs:[rax+rax*1+0x0]
    5e5c:	00 00 00 
    5e5f:	90                   	nop

0000000000005e60 <init_ipp_cpuid>:
    5e60:	48 83 3d 88 31 20 00 	cmp    QWORD PTR [rip+0x203188],0x0        # 208ff0 <ippcpSetCpuFeatures>
    5e67:	00 
    5e68:	0f 84 1a 02 00 00    	je     6088 <init_ipp_cpuid+0x228>
    5e6e:	f7 c7 00 02 00 00    	test   edi,0x200
    5e74:	0f 84 16 02 00 00    	je     6090 <init_ipp_cpuid+0x230>
    5e7a:	48 89 f8             	mov    rax,rdi
    5e7d:	48 83 ec 08          	sub    rsp,0x8
    5e81:	48 b9 00 00 00 00 08 	movabs rcx,0x800000000
    5e88:	00 00 00 
    5e8b:	25 00 08 00 00       	and    eax,0x800
    5e90:	48 83 f8 01          	cmp    rax,0x1
    5e94:	48 19 c0             	sbb    rax,rax
    5e97:	48 83 e0 e0          	and    rax,0xffffffffffffffe0
    5e9b:	48 83 c0 7f          	add    rax,0x7f
    5e9f:	48 89 c2             	mov    rdx,rax
    5ea2:	80 ca 80             	or     dl,0x80
    5ea5:	f7 c7 00 04 00 00    	test   edi,0x400
    5eab:	48 0f 45 c2          	cmovne rax,rdx
    5eaf:	48 89 c2             	mov    rdx,rax
    5eb2:	80 ce 03             	or     dh,0x3
    5eb5:	f7 c7 00 00 01 00    	test   edi,0x10000
    5ebb:	48 0f 45 c2          	cmovne rax,rdx
    5ebf:	48 89 c2             	mov    rdx,rax
    5ec2:	80 ce 04             	or     dh,0x4
    5ec5:	f7 c7 00 40 00 00    	test   edi,0x4000
    5ecb:	48 0f 45 c2          	cmovne rax,rdx
    5ecf:	48 89 c2             	mov    rdx,rax
    5ed2:	80 ce 08             	or     dh,0x8
    5ed5:	f7 c7 00 20 00 00    	test   edi,0x2000
    5edb:	48 0f 45 c2          	cmovne rax,rdx
    5edf:	48 89 c2             	mov    rdx,rax
    5ee2:	80 ce 20             	or     dh,0x20
    5ee5:	f7 c7 00 00 02 00    	test   edi,0x20000
    5eeb:	48 0f 45 c2          	cmovne rax,rdx
    5eef:	48 89 c2             	mov    rdx,rax
    5ef2:	80 ce 40             	or     dh,0x40
    5ef5:	f7 c7 00 80 00 00    	test   edi,0x8000
    5efb:	48 0f 45 c2          	cmovne rax,rdx
    5eff:	48 89 c2             	mov    rdx,rax
    5f02:	80 ce 80             	or     dh,0x80
    5f05:	f7 c7 00 00 80 00    	test   edi,0x800000
    5f0b:	48 0f 45 c2          	cmovne rax,rdx
    5f0f:	48 89 c2             	mov    rdx,rax
    5f12:	48 81 ca 00 00 01 00 	or     rdx,0x10000
    5f19:	f7 c7 00 00 00 10    	test   edi,0x10000000
    5f1f:	48 0f 45 c2          	cmovne rax,rdx
    5f23:	48 89 c2             	mov    rdx,rax
    5f26:	48 81 ca 00 00 02 00 	or     rdx,0x20000
    5f2d:	f7 c7 00 00 00 20    	test   edi,0x20000000
    5f33:	48 0f 45 c2          	cmovne rax,rdx
    5f37:	48 89 c2             	mov    rdx,rax
    5f3a:	48 81 ca 00 00 08 00 	or     rdx,0x80000
    5f41:	48 85 cf             	test   rdi,rcx
    5f44:	48 0f 45 c2          	cmovne rax,rdx
    5f48:	f7 c7 00 00 00 08    	test   edi,0x8000000
    5f4e:	74 0d                	je     5f5d <init_ipp_cpuid+0xfd>
    5f50:	48 ba 00 00 10 00 02 	movabs rdx,0x200100000
    5f57:	00 00 00 
    5f5a:	48 09 d0             	or     rax,rdx
    5f5d:	48 89 c2             	mov    rdx,rax
    5f60:	48 b9 00 00 00 00 02 	movabs rcx,0x200000000
    5f67:	00 00 00 
    5f6a:	48 be 00 00 00 00 04 	movabs rsi,0x400000000
    5f71:	00 00 00 
    5f74:	48 81 ca 00 00 80 00 	or     rdx,0x800000
    5f7b:	48 85 cf             	test   rdi,rcx
    5f7e:	48 0f 45 c2          	cmovne rax,rdx
    5f82:	48 ba 00 00 00 00 01 	movabs rdx,0x100000000
    5f89:	00 00 00 
    5f8c:	48 89 c1             	mov    rcx,rax
    5f8f:	48 81 c9 00 00 40 00 	or     rcx,0x400000
    5f96:	48 85 d7             	test   rdi,rdx
    5f99:	48 0f 45 c1          	cmovne rax,rcx
    5f9d:	48 89 c1             	mov    rcx,rax
    5fa0:	48 81 c9 00 00 20 00 	or     rcx,0x200000
    5fa7:	48 85 f7             	test   rdi,rsi
    5faa:	48 be 00 00 00 00 20 	movabs rsi,0x2000000000
    5fb1:	00 00 00 
    5fb4:	48 0f 45 c1          	cmovne rax,rcx
    5fb8:	48 89 c1             	mov    rcx,rax
    5fbb:	48 81 c9 00 00 00 02 	or     rcx,0x2000000
    5fc2:	f7 c7 00 00 00 01    	test   edi,0x1000000
    5fc8:	48 0f 45 c1          	cmovne rax,rcx
    5fcc:	48 89 c1             	mov    rcx,rax
    5fcf:	48 81 c9 00 00 00 01 	or     rcx,0x1000000
    5fd6:	48 85 f7             	test   rdi,rsi
    5fd9:	48 be 00 00 00 00 40 	movabs rsi,0x4000000000
    5fe0:	00 00 00 
    5fe3:	48 0f 45 c1          	cmovne rax,rcx
    5fe7:	48 89 c1             	mov    rcx,rax
    5fea:	48 81 c9 00 00 00 04 	or     rcx,0x4000000
    5ff1:	48 85 f7             	test   rdi,rsi
    5ff4:	48 be 00 00 00 00 80 	movabs rsi,0x8000000000
    5ffb:	00 00 00 
    5ffe:	48 0f 45 c1          	cmovne rax,rcx
    6002:	48 89 c1             	mov    rcx,rax
    6005:	48 81 c9 00 00 00 08 	or     rcx,0x8000000
    600c:	48 85 f7             	test   rdi,rsi
    600f:	48 be 00 00 00 00 00 	movabs rsi,0x20000000000
    6016:	02 00 00 
    6019:	48 0f 45 c1          	cmovne rax,rcx
    601d:	48 89 c1             	mov    rcx,rax
    6020:	48 81 c9 00 00 00 40 	or     rcx,0x40000000
    6027:	48 85 f7             	test   rdi,rsi
    602a:	48 be 00 00 00 00 00 	movabs rsi,0x10000000000
    6031:	01 00 00 
    6034:	48 0f 45 c1          	cmovne rax,rcx
    6038:	48 89 c1             	mov    rcx,rax
    603b:	48 81 c9 00 00 00 20 	or     rcx,0x20000000
    6042:	48 85 f7             	test   rdi,rsi
    6045:	48 0f 45 c1          	cmovne rax,rcx
    6049:	f7 c7 00 00 00 40    	test   edi,0x40000000
    604f:	74 03                	je     6054 <init_ipp_cpuid+0x1f4>
    6051:	48 09 d0             	or     rax,rdx
    6054:	48 bf 00 00 00 00 00 	movabs rdi,0x8000000000000000
    605b:	00 00 80 
    605e:	48 09 c7             	or     rdi,rax
    6061:	e8 d2 a4 ff ff       	call   538 <ippcpSetCpuFeatures@plt>
    6066:	85 c0                	test   eax,eax
    6068:	75 0e                	jne    6078 <init_ipp_cpuid+0x218>
    606a:	31 c0                	xor    eax,eax
    606c:	48 83 c4 08          	add    rsp,0x8
    6070:	c3                   	ret    
    6071:	0f 1f 80 00 00 00 00 	nop    DWORD PTR [rax+0x0]
    6078:	b8 02 00 00 00       	mov    eax,0x2
    607d:	48 83 c4 08          	add    rsp,0x8
    6081:	c3                   	ret    
    6082:	66 0f 1f 44 00 00    	nop    WORD PTR [rax+rax*1+0x0]
    6088:	31 c0                	xor    eax,eax
    608a:	c3                   	ret    
    608b:	0f 1f 44 00 00       	nop    DWORD PTR [rax+rax*1+0x0]
    6090:	b8 02 00 00 00       	mov    eax,0x2
    6095:	c3                   	ret    
    6096:	66 2e 0f 1f 84 00 00 	nop    WORD PTR cs:[rax+rax*1+0x0]
    609d:	00 00 00 

00000000000060a0 <sgx_create_report>:
    60a0:	4c 8d 54 24 08       	lea    r10,[rsp+0x8]
    60a5:	48 81 e4 00 fe ff ff 	and    rsp,0xfffffffffffffe00
    60ac:	41 ff 72 f8          	push   QWORD PTR [r10-0x8]
    60b0:	55                   	push   rbp
    60b1:	48 89 e5             	mov    rbp,rsp
    60b4:	41 57                	push   r15
    60b6:	41 56                	push   r14
    60b8:	41 55                	push   r13
    60ba:	41 54                	push   r12
    60bc:	4c 8d b5 10 fa ff ff 	lea    r14,[rbp-0x5f0]
    60c3:	41 52                	push   r10
    60c5:	53                   	push   rbx
    60c6:	49 89 fd             	mov    r13,rdi
    60c9:	49 89 f7             	mov    r15,rsi
    60cc:	49 89 d4             	mov    r12,rdx
    60cf:	31 f6                	xor    esi,esi
    60d1:	48 81 ec c0 09 00 00 	sub    rsp,0x9c0
    60d8:	ba 40 00 00 00       	mov    edx,0x40
    60dd:	48 8d 9d 10 f8 ff ff 	lea    rbx,[rbp-0x7f0]
    60e4:	64 48 8b 04 25 28 00 	mov    rax,QWORD PTR fs:0x28
    60eb:	00 00 
    60ed:	48 89 85 08 fe ff ff 	mov    QWORD PTR [rbp-0x1f8],rax
    60f4:	31 c0                	xor    eax,eax
    60f6:	48 8d 85 90 f7 ff ff 	lea    rax,[rbp-0x870]
    60fd:	48 89 c7             	mov    rdi,rax
    6100:	48 89 85 88 f7 ff ff 	mov    QWORD PTR [rbp-0x878],rax
    6107:	e8 19 f9 ff ff       	call   5a25 <__memset>
    610c:	31 f6                	xor    esi,esi
    610e:	ba 00 02 00 00       	mov    edx,0x200
    6113:	4c 89 f7             	mov    rdi,r14
    6116:	e8 0a f9 ff ff       	call   5a25 <__memset>
    611b:	31 f6                	xor    esi,esi
    611d:	ba b0 01 00 00       	mov    edx,0x1b0
    6122:	48 89 df             	mov    rdi,rbx
    6125:	e8 fb f8 ff ff       	call   5a25 <__memset>
    612a:	4d 85 ed             	test   r13,r13
    612d:	74 23                	je     6152 <sgx_create_report+0xb2>
    612f:	be 00 02 00 00       	mov    esi,0x200
    6134:	4c 89 ef             	mov    rdi,r13
    6137:	e8 74 a6 ff ff       	call   7b0 <sgx_is_within_enclave>
    613c:	85 c0                	test   eax,eax
    613e:	0f 84 ac 00 00 00    	je     61f0 <sgx_create_report+0x150>
    6144:	b9 40 00 00 00       	mov    ecx,0x40
    6149:	4c 89 f7             	mov    rdi,r14
    614c:	4c 89 ee             	mov    rsi,r13
    614f:	f3 48 a5             	rep movs QWORD PTR es:[rdi],QWORD PTR ds:[rsi]
    6152:	4d 85 ff             	test   r15,r15
    6155:	74 48                	je     619f <sgx_create_report+0xff>
    6157:	be 40 00 00 00       	mov    esi,0x40
    615c:	4c 89 ff             	mov    rdi,r15
    615f:	e8 4c a6 ff ff       	call   7b0 <sgx_is_within_enclave>
    6164:	85 c0                	test   eax,eax
    6166:	0f 84 84 00 00 00    	je     61f0 <sgx_create_report+0x150>
    616c:	f3 41 0f 6f 07       	movdqu xmm0,XMMWORD PTR [r15]
    6171:	0f 29 85 90 f7 ff ff 	movaps XMMWORD PTR [rbp-0x870],xmm0
    6178:	f3 41 0f 6f 47 10    	movdqu xmm0,XMMWORD PTR [r15+0x10]
    617e:	0f 29 85 a0 f7 ff ff 	movaps XMMWORD PTR [rbp-0x860],xmm0
    6185:	f3 41 0f 6f 47 20    	movdqu xmm0,XMMWORD PTR [r15+0x20]
    618b:	0f 29 85 b0 f7 ff ff 	movaps XMMWORD PTR [rbp-0x850],xmm0
    6192:	f3 41 0f 6f 47 30    	movdqu xmm0,XMMWORD PTR [r15+0x30]
    6198:	0f 29 85 c0 f7 ff ff 	movaps XMMWORD PTR [rbp-0x840],xmm0
    619f:	4d 85 e4             	test   r12,r12
    61a2:	74 4c                	je     61f0 <sgx_create_report+0x150>
    61a4:	be b0 01 00 00       	mov    esi,0x1b0
    61a9:	4c 89 e7             	mov    rdi,r12
    61ac:	e8 ff a5 ff ff       	call   7b0 <sgx_is_within_enclave>
    61b1:	85 c0                	test   eax,eax
    61b3:	74 3b                	je     61f0 <sgx_create_report+0x150>
    61b5:	48 8b b5 88 f7 ff ff 	mov    rsi,QWORD PTR [rbp-0x878]
    61bc:	48 89 da             	mov    rdx,rbx
    61bf:	4c 89 f7             	mov    rdi,r14
    61c2:	e8 79 09 00 00       	call   6b40 <do_ereport>
    61c7:	89 c2                	mov    edx,eax
    61c9:	b8 01 00 00 00       	mov    eax,0x1
    61ce:	85 d2                	test   edx,edx
    61d0:	75 23                	jne    61f5 <sgx_create_report+0x155>
    61d2:	31 c0                	xor    eax,eax
    61d4:	0f 1f 40 00          	nop    DWORD PTR [rax+0x0]
    61d8:	48 8b 14 c3          	mov    rdx,QWORD PTR [rbx+rax*8]
    61dc:	49 89 14 c4          	mov    QWORD PTR [r12+rax*8],rdx
    61e0:	48 83 c0 01          	add    rax,0x1
    61e4:	48 83 f8 36          	cmp    rax,0x36
    61e8:	75 ee                	jne    61d8 <sgx_create_report+0x138>
    61ea:	31 c0                	xor    eax,eax
    61ec:	eb 07                	jmp    61f5 <sgx_create_report+0x155>
    61ee:	66 90                	xchg   ax,ax
    61f0:	b8 02 00 00 00       	mov    eax,0x2
    61f5:	48 8b 8d 08 fe ff ff 	mov    rcx,QWORD PTR [rbp-0x1f8]
    61fc:	64 48 33 0c 25 28 00 	xor    rcx,QWORD PTR fs:0x28
    6203:	00 00 
    6205:	75 18                	jne    621f <sgx_create_report+0x17f>
    6207:	48 81 c4 c0 09 00 00 	add    rsp,0x9c0
    620e:	5b                   	pop    rbx
    620f:	41 5a                	pop    r10
    6211:	41 5c                	pop    r12
    6213:	41 5d                	pop    r13
    6215:	41 5e                	pop    r14
    6217:	41 5f                	pop    r15
    6219:	5d                   	pop    rbp
    621a:	49 8d 62 f8          	lea    rsp,[r10-0x8]
    621e:	c3                   	ret    
    621f:	e8 7c d2 ff ff       	call   34a0 <__stack_chk_fail>
    6224:	66 2e 0f 1f 84 00 00 	nop    WORD PTR cs:[rax+rax*1+0x0]
    622b:	00 00 00 
    622e:	66 90                	xchg   ax,ax

0000000000006230 <sgx_self_report>:
    6230:	48 83 3d 18 33 20 00 	cmp    QWORD PTR [rip+0x203318],0x0        # 209550 <_ZZ15sgx_self_reportE7_report+0x30>
    6237:	00 
    6238:	74 0e                	je     6248 <sgx_self_report+0x18>
    623a:	48 8d 05 df 32 20 00 	lea    rax,[rip+0x2032df]        # 209520 <_ZZ15sgx_self_reportE7_report>
    6241:	c3                   	ret    
    6242:	66 0f 1f 44 00 00    	nop    WORD PTR [rax+rax*1+0x0]
    6248:	48 8d 15 d1 32 20 00 	lea    rdx,[rip+0x2032d1]        # 209520 <_ZZ15sgx_self_reportE7_report>
    624f:	48 83 ec 08          	sub    rsp,0x8
    6253:	31 f6                	xor    esi,esi
    6255:	31 ff                	xor    edi,edi
    6257:	e8 44 fe ff ff       	call   60a0 <sgx_create_report>
    625c:	48 8d 05 bd 32 20 00 	lea    rax,[rip+0x2032bd]        # 209520 <_ZZ15sgx_self_reportE7_report>
    6263:	48 83 c4 08          	add    rsp,0x8
    6267:	c3                   	ret    

Disassembly of section .nipx:

0000000000006270 <init_enclave>:
    6270:	41 54                	push   r12
    6272:	55                   	push   rbp
    6273:	53                   	push   rbx
    6274:	48 81 ec c0 00 00 00 	sub    rsp,0xc0
    627b:	64 48 8b 04 25 28 00 	mov    rax,QWORD PTR fs:0x28
    6282:	00 00 
    6284:	48 89 84 24 b8 00 00 	mov    QWORD PTR [rsp+0xb8],rax
    628b:	00 
    628c:	31 c0                	xor    eax,eax
    628e:	48 85 ff             	test   rdi,rdi
    6291:	0f 84 91 02 00 00    	je     6528 <init_enclave+0x2b8>
    6297:	48 85 f6             	test   rsi,rsi
    629a:	48 89 f3             	mov    rbx,rsi
    629d:	0f 84 85 02 00 00    	je     6528 <init_enclave+0x2b8>
    62a3:	48 83 3d 35 2d 20 00 	cmp    QWORD PTR [rip+0x202d35],0x0        # 208fe0 <_Z9pcl_entryPvS_>
    62aa:	00 
    62ab:	48 89 fd             	mov    rbp,rdi
    62ae:	74 20                	je     62d0 <init_enclave+0x60>
    62b0:	0f ae e8             	lfence 
    62b3:	48 8b b6 94 00 00 00 	mov    rsi,QWORD PTR [rsi+0x94]
    62ba:	48 85 f6             	test   rsi,rsi
    62bd:	0f 84 65 02 00 00    	je     6528 <init_enclave+0x2b8>
    62c3:	e8 68 a2 ff ff       	call   530 <_Z9pcl_entryPvS_@plt>
    62c8:	85 c0                	test   eax,eax
    62ca:	0f 85 58 02 00 00    	jne    6528 <init_enclave+0x2b8>
    62d0:	48 89 ef             	mov    rdi,rbp
    62d3:	e8 98 c9 ff ff       	call   2c70 <relocate_enclave>
    62d8:	85 c0                	test   eax,eax
    62da:	89 c5                	mov    ebp,eax
    62dc:	0f 85 46 02 00 00    	jne    6528 <init_enclave+0x2b8>
    62e2:	be b0 00 00 00       	mov    esi,0xb0
    62e7:	48 89 df             	mov    rdi,rbx
    62ea:	e8 11 a5 ff ff       	call   800 <sgx_is_outside_enclave>
    62ef:	85 c0                	test   eax,eax
    62f1:	0f 84 31 02 00 00    	je     6528 <init_enclave+0x2b8>
    62f7:	0f ae e8             	lfence 
    62fa:	f3 0f 6f 03          	movdqu xmm0,XMMWORD PTR [rbx]
    62fe:	0f 29 04 24          	movaps XMMWORD PTR [rsp],xmm0
    6302:	f3 0f 6f 43 10       	movdqu xmm0,XMMWORD PTR [rbx+0x10]
    6307:	0f 29 44 24 10       	movaps XMMWORD PTR [rsp+0x10],xmm0
    630c:	f6 44 24 13 40       	test   BYTE PTR [rsp+0x13],0x40
    6311:	f3 0f 6f 43 20       	movdqu xmm0,XMMWORD PTR [rbx+0x20]
    6316:	0f 29 44 24 20       	movaps XMMWORD PTR [rsp+0x20],xmm0
    631b:	f3 0f 6f 43 30       	movdqu xmm0,XMMWORD PTR [rbx+0x30]
    6320:	0f 29 44 24 30       	movaps XMMWORD PTR [rsp+0x30],xmm0
    6325:	f3 0f 6f 43 40       	movdqu xmm0,XMMWORD PTR [rbx+0x40]
    632a:	0f 29 44 24 40       	movaps XMMWORD PTR [rsp+0x40],xmm0
    632f:	f3 0f 6f 43 50       	movdqu xmm0,XMMWORD PTR [rbx+0x50]
    6334:	0f 29 44 24 50       	movaps XMMWORD PTR [rsp+0x50],xmm0
    6339:	f3 0f 6f 43 60       	movdqu xmm0,XMMWORD PTR [rbx+0x60]
    633e:	0f 29 44 24 60       	movaps XMMWORD PTR [rsp+0x60],xmm0
    6343:	f3 0f 6f 43 70       	movdqu xmm0,XMMWORD PTR [rbx+0x70]
    6348:	0f 29 44 24 70       	movaps XMMWORD PTR [rsp+0x70],xmm0
    634d:	f3 0f 6f 83 80 00 00 	movdqu xmm0,XMMWORD PTR [rbx+0x80]
    6354:	00 
    6355:	0f 29 84 24 80 00 00 	movaps XMMWORD PTR [rsp+0x80],xmm0
    635c:	00 
    635d:	f3 0f 6f 83 90 00 00 	movdqu xmm0,XMMWORD PTR [rbx+0x90]
    6364:	00 
    6365:	0f 29 84 24 90 00 00 	movaps XMMWORD PTR [rsp+0x90],xmm0
    636c:	00 
    636d:	f3 0f 6f 83 a0 00 00 	movdqu xmm0,XMMWORD PTR [rbx+0xa0]
    6374:	00 
    6375:	0f 29 84 24 a0 00 00 	movaps XMMWORD PTR [rsp+0xa0],xmm0
    637c:	00 
    637d:	0f 85 3d 01 00 00    	jne    64c0 <init_enclave+0x250>
    6383:	ba 14 00 00 00       	mov    edx,0x14
    6388:	b9 9c 00 00 00       	mov    ecx,0x9c
    638d:	48 8d 34 0c          	lea    rsi,[rsp+rcx*1]
    6391:	31 c0                	xor    eax,eax
    6393:	0f 1f 44 00 00       	nop    DWORD PTR [rax+rax*1+0x0]
    6398:	c6 04 06 00          	mov    BYTE PTR [rsi+rax*1],0x0
    639c:	48 83 c0 01          	add    rax,0x1
    63a0:	48 39 d0             	cmp    rax,rdx
    63a3:	72 f3                	jb     6398 <init_enclave+0x128>
    63a5:	8b 84 24 ac 00 00 00 	mov    eax,DWORD PTR [rsp+0xac]
    63ac:	89 05 3e 2a 20 00    	mov    DWORD PTR [rip+0x202a3e],eax        # 208df0 <g_cpu_core_num>
    63b2:	8b 44 24 08          	mov    eax,DWORD PTR [rsp+0x8]
    63b6:	83 f8 00             	cmp    eax,0x0
    63b9:	89 05 35 2a 20 00    	mov    DWORD PTR [rip+0x202a35],eax        # 208df4 <g_sdk_version>
    63bf:	0f 85 2b 01 00 00    	jne    64f0 <init_enclave+0x280>
    63c5:	c7 05 29 2a 20 00 00 	mov    DWORD PTR [rip+0x202a29],0x0        # 208df8 <EDMM_supported>
    63cc:	00 00 00 
    63cf:	e8 bc bf ff ff       	call   2390 <get_heap_min_size>
    63d4:	49 89 c4             	mov    r12,rax
    63d7:	e8 54 bf ff ff       	call   2330 <get_heap_size>
    63dc:	48 89 c3             	mov    rbx,rax
    63df:	e8 2c bf ff ff       	call   2310 <get_heap_base>
    63e4:	89 e9                	mov    ecx,ebp
    63e6:	4c 89 e2             	mov    rdx,r12
    63e9:	48 89 de             	mov    rsi,rbx
    63ec:	48 89 c7             	mov    rdi,rax
    63ef:	e8 dc f6 ff ff       	call   5ad0 <heap_init>
    63f4:	85 c0                	test   eax,eax
    63f6:	0f 85 2c 01 00 00    	jne    6528 <init_enclave+0x2b8>
    63fc:	e8 df c5 ff ff       	call   29e0 <get_xfeature_state>
    6401:	48 8b 3c 24          	mov    rdi,QWORD PTR [rsp]
    6405:	48 81 e7 ff e7 ff e1 	and    rdi,0xffffffffe1ffe7ff
    640c:	f6 44 24 13 40       	test   BYTE PTR [rsp+0x13],0x40
    6411:	74 08                	je     641b <init_enclave+0x1ab>
    6413:	48 8b bc 24 a4 00 00 	mov    rdi,QWORD PTR [rsp+0xa4]
    641a:	00 
    641b:	83 3d d2 29 20 00 01 	cmp    DWORD PTR [rip+0x2029d2],0x1        # 208df4 <g_sdk_version>
    6422:	7f 0f                	jg     6433 <init_enclave+0x1c3>
    6424:	48 83 bc 24 9c 00 00 	cmp    QWORD PTR [rsp+0x9c],0x0
    642b:	00 00 
    642d:	0f 84 dd 00 00 00    	je     6510 <init_enclave+0x2a0>
    6433:	48 8d 74 24 14       	lea    rsi,[rsp+0x14]
    6438:	48 89 c2             	mov    rdx,rax
    643b:	e8 00 a2 ff ff       	call   640 <init_optimized_libs>
    6440:	85 c0                	test   eax,eax
    6442:	0f 85 e0 00 00 00    	jne    6528 <init_enclave+0x2b8>
    6448:	e8 d3 bf ff ff       	call   2420 <get_rsrv_size>
    644d:	48 85 c0             	test   rax,rax
    6450:	74 2b                	je     647d <init_enclave+0x20d>
    6452:	e8 29 c0 ff ff       	call   2480 <get_rsrv_min_size>
    6457:	48 89 c5             	mov    rbp,rax
    645a:	e8 c1 bf ff ff       	call   2420 <get_rsrv_size>
    645f:	48 89 c3             	mov    rbx,rax
    6462:	e8 99 bf ff ff       	call   2400 <get_rsrv_base>
    6467:	48 89 ea             	mov    rdx,rbp
    646a:	48 89 de             	mov    rsi,rbx
    646d:	48 89 c7             	mov    rdi,rax
    6470:	e8 7b f9 ff ff       	call   5df0 <rsrv_mem_init>
    6475:	85 c0                	test   eax,eax
    6477:	0f 85 ab 00 00 00    	jne    6528 <init_enclave+0x2b8>
    647d:	48 8d 3d 64 29 20 00 	lea    rdi,[rip+0x202964]        # 208de8 <__intel_security_cookie>
    6484:	be 08 00 00 00       	mov    esi,0x8
    6489:	e8 02 a5 ff ff       	call   990 <sgx_read_rand>
    648e:	85 c0                	test   eax,eax
    6490:	0f 95 c0             	setne  al
    6493:	0f b6 c0             	movzx  eax,al
    6496:	f7 d8                	neg    eax
    6498:	48 8b 8c 24 b8 00 00 	mov    rcx,QWORD PTR [rsp+0xb8]
    649f:	00 
    64a0:	64 48 33 0c 25 28 00 	xor    rcx,QWORD PTR fs:0x28
    64a7:	00 00 
    64a9:	0f 85 83 00 00 00    	jne    6532 <init_enclave+0x2c2>
    64af:	48 81 c4 c0 00 00 00 	add    rsp,0xc0
    64b6:	5b                   	pop    rbx
    64b7:	5d                   	pop    rbp
    64b8:	41 5c                	pop    r12
    64ba:	c3                   	ret    
    64bb:	0f 1f 44 00 00       	nop    DWORD PTR [rax+rax*1+0x0]
    64c0:	ba b0 00 00 00       	mov    edx,0xb0
    64c5:	48 81 bc 24 9c 00 00 	cmp    QWORD PTR [rsp+0x9c],0xb0
    64cc:	00 b0 00 00 00 
    64d1:	48 89 d1             	mov    rcx,rdx
    64d4:	48 0f 46 8c 24 9c 00 	cmovbe rcx,QWORD PTR [rsp+0x9c]
    64db:	00 00 
    64dd:	48 29 ca             	sub    rdx,rcx
    64e0:	0f 85 a7 fe ff ff    	jne    638d <init_enclave+0x11d>
    64e6:	e9 ba fe ff ff       	jmp    63a5 <init_enclave+0x135>
    64eb:	0f 1f 44 00 00       	nop    DWORD PTR [rax+rax*1+0x0]
    64f0:	7e 36                	jle    6528 <init_enclave+0x2b8>
    64f2:	48 8d 7c 24 0c       	lea    rdi,[rsp+0xc]
    64f7:	31 f6                	xor    esi,esi
    64f9:	e8 12 c0 ff ff       	call   2510 <feature_supported>
    64fe:	89 c5                	mov    ebp,eax
    6500:	89 05 f2 28 20 00    	mov    DWORD PTR [rip+0x2028f2],eax        # 208df8 <EDMM_supported>
    6506:	e9 c4 fe ff ff       	jmp    63cf <init_enclave+0x15f>
    650b:	0f 1f 44 00 00       	nop    DWORD PTR [rax+rax*1+0x0]
    6510:	31 f6                	xor    esi,esi
    6512:	48 89 c2             	mov    rdx,rax
    6515:	e8 26 a1 ff ff       	call   640 <init_optimized_libs>
    651a:	85 c0                	test   eax,eax
    651c:	0f 84 26 ff ff ff    	je     6448 <init_enclave+0x1d8>
    6522:	66 0f 1f 44 00 00    	nop    WORD PTR [rax+rax*1+0x0]
    6528:	b8 ff ff ff ff       	mov    eax,0xffffffff
    652d:	e9 66 ff ff ff       	jmp    6498 <init_enclave+0x228>
    6532:	e8 69 cf ff ff       	call   34a0 <__stack_chk_fail>
    6537:	66 0f 1f 84 00 00 00 	nop    WORD PTR [rax+rax*1+0x0]
    653e:	00 00 

0000000000006540 <do_init_enclave>:
    6540:	41 54                	push   r12
    6542:	55                   	push   rbp
    6543:	49 89 f4             	mov    r12,rsi
    6546:	53                   	push   rbx
    6547:	48 89 fd             	mov    rbp,rdi
    654a:	e8 f0 02 00 00       	call   683f <get_enclave_base>
    654f:	48 89 c3             	mov    rbx,rax
    6552:	e8 07 03 00 00       	call   685e <lock_enclave>
    6557:	85 c0                	test   eax,eax
    6559:	74 0d                	je     6568 <do_init_enclave+0x28>
    655b:	b8 01 00 00 00       	mov    eax,0x1
    6560:	5b                   	pop    rbx
    6561:	5d                   	pop    rbp
    6562:	41 5c                	pop    r12
    6564:	c3                   	ret    
    6565:	0f 1f 00             	nop    DWORD PTR [rax]
    6568:	48 89 ee             	mov    rsi,rbp
    656b:	48 89 df             	mov    rdi,rbx
    656e:	e8 fd fc ff ff       	call   6270 <init_enclave>
    6573:	85 c0                	test   eax,eax
    6575:	75 e4                	jne    655b <do_init_enclave+0x1b>
    6577:	be 01 00 00 00       	mov    esi,0x1
    657c:	4c 89 e7             	mov    rdi,r12
    657f:	e8 1c b5 ff ff       	call   1aa0 <do_init_thread>
    6584:	85 c0                	test   eax,eax
    6586:	75 d3                	jne    655b <do_init_enclave+0x1b>
    6588:	8b 05 6a 28 20 00    	mov    eax,DWORD PTR [rip+0x20286a]        # 208df8 <EDMM_supported>
    658e:	48 8d 2d 6b 07 00 00 	lea    rbp,[rip+0x76b]        # 6d00 <g_global_data>
    6595:	85 c0                	test   eax,eax
    6597:	74 57                	je     65f0 <do_init_enclave+0xb0>
    6599:	8b b5 30 01 00 00    	mov    esi,DWORD PTR [rbp+0x130]
    659f:	48 8d bd 38 01 00 00 	lea    rdi,[rbp+0x138]
    65a6:	31 d2                	xor    edx,edx
    65a8:	48 c1 e6 05          	shl    rsi,0x5
    65ac:	48 01 fe             	add    rsi,rdi
    65af:	e8 ec ab ff ff       	call   11a0 <_Z18accept_post_removePVK9_layout_tS1_m>
    65b4:	85 c0                	test   eax,eax
    65b6:	75 a3                	jne    655b <do_init_enclave+0x1b>
    65b8:	e8 d3 bd ff ff       	call   2390 <get_heap_min_size>
    65bd:	48 8b 7d 10          	mov    rdi,QWORD PTR [rbp+0x10]
    65c1:	31 d2                	xor    edx,edx
    65c3:	48 89 c1             	mov    rcx,rax
    65c6:	48 89 c6             	mov    rsi,rax
    65c9:	48 01 df             	add    rdi,rbx
    65cc:	e8 af f4 ff ff       	call   5a80 <memset_s>
    65d1:	48 8d 05 50 28 20 00 	lea    rax,[rip+0x202850]        # 208e28 <rsrv_mem_min_size>
    65d8:	48 8b 7d 20          	mov    rdi,QWORD PTR [rbp+0x20]
    65dc:	31 d2                	xor    edx,edx
    65de:	48 8b 30             	mov    rsi,QWORD PTR [rax]
    65e1:	48 01 df             	add    rdi,rbx
    65e4:	48 89 f1             	mov    rcx,rsi
    65e7:	e8 94 f4 ff ff       	call   5a80 <memset_s>
    65ec:	eb 2e                	jmp    661c <do_init_enclave+0xdc>
    65ee:	66 90                	xchg   ax,ax
    65f0:	48 8b 4d 18          	mov    rcx,QWORD PTR [rbp+0x18]
    65f4:	48 8b 75 18          	mov    rsi,QWORD PTR [rbp+0x18]
    65f8:	31 d2                	xor    edx,edx
    65fa:	48 8b 7d 10          	mov    rdi,QWORD PTR [rbp+0x10]
    65fe:	48 01 df             	add    rdi,rbx
    6601:	e8 7a f4 ff ff       	call   5a80 <memset_s>
    6606:	48 8b 4d 28          	mov    rcx,QWORD PTR [rbp+0x28]
    660a:	48 8b 75 28          	mov    rsi,QWORD PTR [rbp+0x28]
    660e:	31 d2                	xor    edx,edx
    6610:	48 8b 7d 20          	mov    rdi,QWORD PTR [rbp+0x20]
    6614:	48 01 df             	add    rdi,rbx
    6617:	e8 64 f4 ff ff       	call   5a80 <memset_s>
    661c:	c7 05 7a 2a 20 00 02 	mov    DWORD PTR [rip+0x202a7a],0x2        # 2090a0 <g_enclave_state>
    6623:	00 00 00 
    6626:	31 c0                	xor    eax,eax
    6628:	e9 33 ff ff ff       	jmp    6560 <do_init_enclave+0x20>
    662d:	0f 1f 00             	nop    DWORD PTR [rax]

0000000000006630 <sgx_is_enclave_crashed>:
    6630:	48 83 ec 08          	sub    rsp,0x8
    6634:	e8 0e 02 00 00       	call   6847 <get_enclave_state>
    6639:	83 f8 03             	cmp    eax,0x3
    663c:	0f 94 c0             	sete   al
    663f:	48 83 c4 08          	add    rsp,0x8
    6643:	0f b6 c0             	movzx  eax,al
    6646:	c3                   	ret    
    6647:	66 0f 1f 84 00 00 00 	nop    WORD PTR [rax+rax*1+0x0]
    664e:	00 00 

0000000000006650 <enter_enclave>:
    6650:	41 55                	push   r13
    6652:	41 54                	push   r12
    6654:	49 89 f5             	mov    r13,rsi
    6657:	55                   	push   rbp
    6658:	53                   	push   rbx
    6659:	49 89 d4             	mov    r12,rdx
    665c:	89 fb                	mov    ebx,edi
    665e:	89 cd                	mov    ebp,ecx
    6660:	48 83 ec 18          	sub    rsp,0x18
    6664:	e8 c7 ff ff ff       	call   6630 <sgx_is_enclave_crashed>
    6669:	85 c0                	test   eax,eax
    666b:	75 73                	jne    66e0 <enter_enclave+0x90>
    666d:	83 fb ff             	cmp    ebx,0xffffffff
    6670:	75 26                	jne    6698 <enter_enclave+0x48>
    6672:	85 ed                	test   ebp,ebp
    6674:	0f 84 f6 00 00 00    	je     6770 <enter_enclave+0x120>
    667a:	bf 03 00 00 00       	mov    edi,0x3
    667f:	e8 d0 01 00 00       	call   6854 <set_enclave_state>
    6684:	b8 01 00 00 00       	mov    eax,0x1
    6689:	48 83 c4 18          	add    rsp,0x18
    668d:	5b                   	pop    rbx
    668e:	5d                   	pop    rbp
    668f:	41 5c                	pop    r12
    6691:	41 5d                	pop    r13
    6693:	c3                   	ret    
    6694:	0f 1f 40 00          	nop    DWORD PTR [rax+0x0]
    6698:	e8 aa 01 00 00       	call   6847 <get_enclave_state>
    669d:	83 f8 02             	cmp    eax,0x2
    66a0:	75 d8                	jne    667a <enter_enclave+0x2a>
    66a2:	85 ed                	test   ebp,ebp
    66a4:	0f 85 ff 00 00 00    	jne    67a9 <enter_enclave+0x159>
    66aa:	85 db                	test   ebx,ebx
    66ac:	79 42                	jns    66f0 <enter_enclave+0xa0>
    66ae:	83 fb fa             	cmp    ebx,0xfffffffa
    66b1:	74 3d                	je     66f0 <enter_enclave+0xa0>
    66b3:	83 fb fe             	cmp    ebx,0xfffffffe
    66b6:	0f 84 c4 00 00 00    	je     6780 <enter_enclave+0x130>
    66bc:	83 fb fc             	cmp    ebx,0xfffffffc
    66bf:	0f 84 cb 00 00 00    	je     6790 <enter_enclave+0x140>
    66c5:	83 fb fb             	cmp    ebx,0xfffffffb
    66c8:	75 b0                	jne    667a <enter_enclave+0x2a>
    66ca:	4c 89 e7             	mov    rdi,r12
    66cd:	e8 2e b8 ff ff       	call   1f00 <do_uninit_enclave>
    66d2:	89 c3                	mov    ebx,eax
    66d4:	eb 41                	jmp    6717 <enter_enclave+0xc7>
    66d6:	66 2e 0f 1f 84 00 00 	nop    WORD PTR cs:[rax+rax*1+0x0]
    66dd:	00 00 00 
    66e0:	48 83 c4 18          	add    rsp,0x18
    66e4:	b8 06 10 00 00       	mov    eax,0x1006
    66e9:	5b                   	pop    rbx
    66ea:	5d                   	pop    rbp
    66eb:	41 5c                	pop    r12
    66ed:	41 5d                	pop    r13
    66ef:	c3                   	ret    
    66f0:	e8 85 01 00 00       	call   687a <get_thread_data>
    66f5:	48 85 c0             	test   rax,rax
    66f8:	0f 84 a2 00 00 00    	je     67a0 <enter_enclave+0x150>
    66fe:	48 8b 48 08          	mov    rcx,QWORD PTR [rax+0x8]
    6702:	48 39 48 10          	cmp    QWORD PTR [rax+0x10],rcx
    6706:	74 28                	je     6730 <enter_enclave+0xe0>
    6708:	89 df                	mov    edi,ebx
    670a:	4c 89 e2             	mov    rdx,r12
    670d:	4c 89 ee             	mov    rsi,r13
    6710:	e8 5b b5 ff ff       	call   1c70 <do_ecall>
    6715:	89 c3                	mov    ebx,eax
    6717:	83 fb 01             	cmp    ebx,0x1
    671a:	89 d8                	mov    eax,ebx
    671c:	0f 84 58 ff ff ff    	je     667a <enter_enclave+0x2a>
    6722:	48 83 c4 18          	add    rsp,0x18
    6726:	5b                   	pop    rbx
    6727:	5d                   	pop    rbp
    6728:	41 5c                	pop    r12
    672a:	41 5d                	pop    r13
    672c:	c3                   	ret    
    672d:	0f 1f 00             	nop    DWORD PTR [rax]
    6730:	48 8d 05 c9 05 00 00 	lea    rax,[rip+0x5c9]        # 6d00 <g_global_data>
    6737:	48 8b 50 38          	mov    rdx,QWORD PTR [rax+0x38]
    673b:	48 85 d2             	test   rdx,rdx
    673e:	74 c8                	je     6708 <enter_enclave+0xb8>
    6740:	48 8b 68 48          	mov    rbp,QWORD PTR [rax+0x48]
    6744:	48 8d 7c 24 08       	lea    rdi,[rsp+0x8]
    6749:	be 08 00 00 00       	mov    esi,0x8
    674e:	48 c7 44 24 08 00 00 	mov    QWORD PTR [rsp+0x8],0x0
    6755:	00 00 
    6757:	e8 34 a2 ff ff       	call   990 <sgx_read_rand>
    675c:	4c 01 e5             	add    rbp,r12
    675f:	85 c0                	test   eax,eax
    6761:	75 7e                	jne    67e1 <enter_enclave+0x191>
    6763:	48 8b 44 24 08       	mov    rax,QWORD PTR [rsp+0x8]
    6768:	48 89 45 28          	mov    QWORD PTR [rbp+0x28],rax
    676c:	eb 9a                	jmp    6708 <enter_enclave+0xb8>
    676e:	66 90                	xchg   ax,ax
    6770:	4c 89 e6             	mov    rsi,r12
    6773:	4c 89 ef             	mov    rdi,r13
    6776:	e8 c5 fd ff ff       	call   6540 <do_init_enclave>
    677b:	89 c3                	mov    ebx,eax
    677d:	eb 98                	jmp    6717 <enter_enclave+0xc7>
    677f:	90                   	nop
    6780:	4c 89 ef             	mov    rdi,r13
    6783:	e8 58 ba ff ff       	call   21e0 <do_oret>
    6788:	89 c3                	mov    ebx,eax
    678a:	eb 8b                	jmp    6717 <enter_enclave+0xc7>
    678c:	0f 1f 40 00          	nop    DWORD PTR [rax+0x0]
    6790:	4c 89 ef             	mov    rdi,r13
    6793:	e8 78 b6 ff ff       	call   1e10 <do_ecall_add_thread>
    6798:	89 c3                	mov    ebx,eax
    679a:	e9 78 ff ff ff       	jmp    6717 <enter_enclave+0xc7>
    679f:	90                   	nop
    67a0:	48 8d 05 59 05 00 00 	lea    rax,[rip+0x559]        # 6d00 <g_global_data>
    67a7:	eb 97                	jmp    6740 <enter_enclave+0xf0>
    67a9:	83 ed 01             	sub    ebp,0x1
    67ac:	0f 85 c8 fe ff ff    	jne    667a <enter_enclave+0x2a>
    67b2:	83 fb fd             	cmp    ebx,0xfffffffd
    67b5:	0f 85 bf fe ff ff    	jne    667a <enter_enclave+0x2a>
    67bb:	4c 89 e7             	mov    rdi,r12
    67be:	e8 9d bf ff ff       	call   2760 <trts_handle_exception>
    67c3:	4c 89 e7             	mov    rdi,r12
    67c6:	89 c3                	mov    ebx,eax
    67c8:	e8 23 a3 ff ff       	call   af0 <check_static_stack_canary>
    67cd:	89 c2                	mov    edx,eax
    67cf:	b8 09 10 00 00       	mov    eax,0x1009
    67d4:	85 d2                	test   edx,edx
    67d6:	0f 85 ad fe ff ff    	jne    6689 <enter_enclave+0x39>
    67dc:	e9 36 ff ff ff       	jmp    6717 <enter_enclave+0xc7>
    67e1:	e8 c3 03 00 00       	call   6ba9 <abort>

00000000000067e6 <restore_xregs>:
    67e6:	48 89 f9             	mov    rcx,rdi
    67e9:	48 8d 05 b4 28 20 00 	lea    rax,[rip+0x2028b4]        # 2090a4 <g_xsave_enabled>
    67f0:	8b 00                	mov    eax,DWORD PTR [rax]
    67f2:	83 f8 00             	cmp    eax,0x0
    67f5:	74 16                	je     680d <restore_xregs+0x27>
    67f7:	48 31 c0             	xor    rax,rax
    67fa:	48 31 d2             	xor    rdx,rdx
    67fd:	b8 ff ff ff ff       	mov    eax,0xffffffff
    6802:	ba ff ff ff ff       	mov    edx,0xffffffff
    6807:	48 0f ae 29          	xrstor64 [rcx]
    680b:	eb 04                	jmp    6811 <restore_xregs+0x2b>
    680d:	48 0f ae 09          	fxrstor64 [rcx]
    6811:	c3                   	ret    

0000000000006812 <save_xregs>:
    6812:	48 89 f9             	mov    rcx,rdi
    6815:	48 8d 05 88 28 20 00 	lea    rax,[rip+0x202888]        # 2090a4 <g_xsave_enabled>
    681c:	9b                   	fwait
    681d:	8b 00                	mov    eax,DWORD PTR [rax]
    681f:	83 f8 00             	cmp    eax,0x0
    6822:	74 16                	je     683a <save_xregs+0x28>
    6824:	48 31 c0             	xor    rax,rax
    6827:	48 31 d2             	xor    rdx,rdx
    682a:	b8 ff ff ff ff       	mov    eax,0xffffffff
    682f:	ba ff ff ff ff       	mov    edx,0xffffffff
    6834:	48 0f c7 21          	xsavec64 [rcx]
    6838:	eb 04                	jmp    683e <save_xregs+0x2c>
    683a:	48 0f ae 01          	fxsave64 [rcx]
    683e:	c3                   	ret    

000000000000683f <get_enclave_base>:
    683f:	48 8d 05 ba 97 ff ff 	lea    rax,[rip+0xffffffffffff97ba]        # 0 <enclave.so>
    6846:	c3                   	ret    

0000000000006847 <get_enclave_state>:
    6847:	48 8d 0d 52 28 20 00 	lea    rcx,[rip+0x202852]        # 2090a0 <g_enclave_state>
    684e:	48 31 c0             	xor    rax,rax
    6851:	8b 01                	mov    eax,DWORD PTR [rcx]
    6853:	c3                   	ret    

0000000000006854 <set_enclave_state>:
    6854:	48 8d 05 45 28 20 00 	lea    rax,[rip+0x202845]        # 2090a0 <g_enclave_state>
    685b:	89 38                	mov    DWORD PTR [rax],edi
    685d:	c3                   	ret    

000000000000685e <lock_enclave>:
    685e:	48 8d 15 3b 28 20 00 	lea    rdx,[rip+0x20283b]        # 2090a0 <g_enclave_state>
    6865:	48 31 c0             	xor    rax,rax
    6868:	b8 00 00 00 00       	mov    eax,0x0
    686d:	48 31 c9             	xor    rcx,rcx
    6870:	b9 01 00 00 00       	mov    ecx,0x1
    6875:	f0 0f b1 0a          	lock cmpxchg DWORD PTR [rdx],ecx
    6879:	c3                   	ret    

000000000000687a <get_thread_data>:
    687a:	65 48 8b 04 25 00 00 	mov    rax,QWORD PTR gs:0x0
    6881:	00 00 
    6883:	c3                   	ret    

0000000000006884 <get_stack_guard>:
    6884:	65 48 8b 04 25 28 00 	mov    rax,QWORD PTR gs:0x28
    688b:	00 00 
    688d:	c3                   	ret    

000000000000688e <enclave_entry>:
    688e:	48 31 d2             	xor    rdx,rdx
    6891:	48 01 d2             	add    rdx,rdx
    6894:	fc                   	cld    
    6895:	4d 31 c0             	xor    r8,r8
    6898:	4d 31 c9             	xor    r9,r9
    689b:	4d 31 d2             	xor    r10,r10
    689e:	4d 31 db             	xor    r11,r11
    68a1:	4d 31 e4             	xor    r12,r12
    68a4:	4d 31 ed             	xor    r13,r13
    68a7:	4d 31 f6             	xor    r14,r14
    68aa:	4d 31 ff             	xor    r15,r15
    68ad:	48 83 f8 00          	cmp    rax,0x0
    68b1:	0f 85 cb 00 00 00    	jne    6982 <enclave_entry+0xf4>
    68b7:	65 48 8b 04 25 08 00 	mov    rax,QWORD PTR gs:0x8
    68be:	00 00 
    68c0:	48 83 f8 00          	cmp    rax,0x0
    68c4:	75 0f                	jne    68d5 <enclave_entry+0x47>
    68c6:	48 89 d8             	mov    rax,rbx
    68c9:	48 2d 00 00 01 00    	sub    rax,0x10000
    68cf:	48 2d b0 02 00 00    	sub    rax,0x2b0
    68d5:	48 94                	xchg   rsp,rax
    68d7:	51                   	push   rcx
    68d8:	55                   	push   rbp
    68d9:	48 89 e5             	mov    rbp,rsp
    68dc:	9c                   	pushf  
    68dd:	48 f7 14 24          	not    QWORD PTR [rsp]
    68e1:	48 81 0c 24 00 00 04 	or     QWORD PTR [rsp],0x40000
    68e8:	00 
    68e9:	48 f7 14 24          	not    QWORD PTR [rsp]
    68ed:	9d                   	popf   
    68ee:	48 83 ec 30          	sub    rsp,0x30
    68f2:	48 89 45 f8          	mov    QWORD PTR [rbp-0x8],rax
    68f6:	48 89 55 e8          	mov    QWORD PTR [rbp-0x18],rdx
    68fa:	48 89 5d e0          	mov    QWORD PTR [rbp-0x20],rbx
    68fe:	48 89 75 d8          	mov    QWORD PTR [rbp-0x28],rsi
    6902:	48 89 7d d0          	mov    QWORD PTR [rbp-0x30],rdi
    6906:	48 83 ec 20          	sub    rsp,0x20
    690a:	48 8d 3d 6f 0a 00 00 	lea    rdi,[rip+0xa6f]        # 7380 <SYNTHETIC_STATE>
    6911:	e8 d0 fe ff ff       	call   67e6 <restore_xregs>
    6916:	48 83 c4 20          	add    rsp,0x20
    691a:	48 8b 7d d0          	mov    rdi,QWORD PTR [rbp-0x30]
    691e:	48 8b 75 d8          	mov    rsi,QWORD PTR [rbp-0x28]
    6922:	48 8b 55 e0          	mov    rdx,QWORD PTR [rbp-0x20]
    6926:	48 8b 4d e8          	mov    rcx,QWORD PTR [rbp-0x18]
    692a:	e8 21 fd ff ff       	call   6650 <enter_enclave>
    692f:	48 89 c3             	mov    rbx,rax
    6932:	48 8d 3d 47 0a 00 00 	lea    rdi,[rip+0xa47]        # 7380 <SYNTHETIC_STATE>
    6939:	e8 a8 fe ff ff       	call   67e6 <restore_xregs>
    693e:	48 c7 c7 ff ff ff ff 	mov    rdi,0xffffffffffffffff
    6945:	48 89 de             	mov    rsi,rbx
    6948:	48 8b 55 f8          	mov    rdx,QWORD PTR [rbp-0x8]
    694c:	48 89 ec             	mov    rsp,rbp
    694f:	5d                   	pop    rbp
    6950:	5b                   	pop    rbx
    6951:	48 89 d4             	mov    rsp,rdx
    6954:	48 31 c9             	xor    rcx,rcx
    6957:	48 31 d2             	xor    rdx,rdx
    695a:	4d 31 c0             	xor    r8,r8
    695d:	4d 31 c9             	xor    r9,r9
    6960:	4d 31 d2             	xor    r10,r10
    6963:	4d 31 db             	xor    r11,r11
    6966:	4d 31 e4             	xor    r12,r12
    6969:	4d 31 ed             	xor    r13,r13
    696c:	4d 31 f6             	xor    r14,r14
    696f:	4d 31 ff             	xor    r15,r15
    6972:	48 01 d2             	add    rdx,rdx
    6975:	fc                   	cld    
    6976:	48 c7 c0 04 00 00 00 	mov    rax,0x4
    697d:	0f 01 d7             	enclu  
    6980:	0f 0b                	ud2    
    6982:	48 89 c2             	mov    rdx,rax
    6985:	48 89 d8             	mov    rax,rbx
    6988:	48 2d 00 00 01 00    	sub    rax,0x10000
    698e:	e9 42 ff ff ff       	jmp    68d5 <enclave_entry+0x47>
    6993:	0f 0b                	ud2    

0000000000006995 <do_ocall>:
    6995:	55                   	push   rbp
    6996:	48 89 e5             	mov    rbp,rsp
    6999:	48 89 7d 10          	mov    QWORD PTR [rbp+0x10],rdi
    699d:	48 89 75 18          	mov    QWORD PTR [rbp+0x18],rsi
    69a1:	65 48 8b 04 25 38 00 	mov    rax,QWORD PTR gs:0x38
    69a8:	00 00 
    69aa:	48 29 c4             	sub    rsp,rax
    69ad:	48 c7 c0 3f 00 00 00 	mov    rax,0x3f
    69b4:	48 f7 d0             	not    rax
    69b7:	48 21 c4             	and    rsp,rax
    69ba:	48 89 e1             	mov    rcx,rsp
    69bd:	48 81 ec a0 00 00 00 	sub    rsp,0xa0
    69c4:	48 89 8c 24 98 00 00 	mov    QWORD PTR [rsp+0x98],rcx
    69cb:	00 
    69cc:	48 89 5c 24 70       	mov    QWORD PTR [rsp+0x70],rbx
    69d1:	48 89 74 24 68       	mov    QWORD PTR [rsp+0x68],rsi
    69d6:	48 89 7c 24 60       	mov    QWORD PTR [rsp+0x60],rdi
    69db:	48 89 6c 24 58       	mov    QWORD PTR [rsp+0x58],rbp
    69e0:	4c 89 64 24 50       	mov    QWORD PTR [rsp+0x50],r12
    69e5:	4c 89 6c 24 48       	mov    QWORD PTR [rsp+0x48],r13
    69ea:	4c 89 74 24 40       	mov    QWORD PTR [rsp+0x40],r14
    69ef:	4c 89 7c 24 38       	mov    QWORD PTR [rsp+0x38],r15
    69f4:	48 8b bc 24 98 00 00 	mov    rdi,QWORD PTR [rsp+0x98]
    69fb:	00 
    69fc:	65 48 8b 04 25 38 00 	mov    rax,QWORD PTR gs:0x38
    6a03:	00 00 
    6a05:	48 89 c1             	mov    rcx,rax
    6a08:	48 c1 e9 02          	shr    rcx,0x2
    6a0c:	48 31 c0             	xor    rax,rax
    6a0f:	fc                   	cld    
    6a10:	f3 ab                	rep stos DWORD PTR es:[rdi],eax
    6a12:	48 8b bc 24 98 00 00 	mov    rdi,QWORD PTR [rsp+0x98]
    6a19:	00 
    6a1a:	48 89 3c 24          	mov    QWORD PTR [rsp],rdi
    6a1e:	e8 ef fd ff ff       	call   6812 <save_xregs>
    6a23:	48 8d 3d 56 09 00 00 	lea    rdi,[rip+0x956]        # 7380 <SYNTHETIC_STATE>
    6a2a:	48 89 3c 24          	mov    QWORD PTR [rsp],rdi
    6a2e:	e8 b3 fd ff ff       	call   67e6 <restore_xregs>
    6a33:	48 8b 7c 24 60       	mov    rdi,QWORD PTR [rsp+0x60]
    6a38:	48 8b 74 24 68       	mov    rsi,QWORD PTR [rsp+0x68]
    6a3d:	48 c7 c0 44 49 43 4f 	mov    rax,0x4f434944
    6a44:	48 89 44 24 20       	mov    QWORD PTR [rsp+0x20],rax
    6a49:	48 89 7c 24 28       	mov    QWORD PTR [rsp+0x28],rdi
    6a4e:	65 48 8b 04 25 00 00 	mov    rax,QWORD PTR gs:0x0
    6a55:	00 00 
    6a57:	48 89 c3             	mov    rbx,rax
    6a5a:	48 89 e7             	mov    rdi,rsp
    6a5d:	e8 2e b7 ff ff       	call   2190 <update_ocall_lastsp>
    6a62:	48 8b 7c 24 60       	mov    rdi,QWORD PTR [rsp+0x60]
    6a67:	48 8b 74 24 68       	mov    rsi,QWORD PTR [rsp+0x68]
    6a6c:	48 8b 53 20          	mov    rdx,QWORD PTR [rbx+0x20]
    6a70:	48 8b aa 98 00 00 00 	mov    rbp,QWORD PTR [rdx+0x98]
    6a77:	48 8b a2 90 00 00 00 	mov    rsp,QWORD PTR [rdx+0x90]
    6a7e:	48 8b 58 f8          	mov    rbx,QWORD PTR [rax-0x8]
    6a82:	48 c7 c0 04 00 00 00 	mov    rax,0x4
    6a89:	48 31 c9             	xor    rcx,rcx
    6a8c:	48 31 d2             	xor    rdx,rdx
    6a8f:	4d 31 c0             	xor    r8,r8
    6a92:	4d 31 c9             	xor    r9,r9
    6a95:	4d 31 d2             	xor    r10,r10
    6a98:	4d 31 db             	xor    r11,r11
    6a9b:	4d 31 e4             	xor    r12,r12
    6a9e:	4d 31 ed             	xor    r13,r13
    6aa1:	4d 31 f6             	xor    r14,r14
    6aa4:	4d 31 ff             	xor    r15,r15
    6aa7:	48 01 d2             	add    rdx,rdx
    6aaa:	fc                   	cld    
    6aab:	0f 01 d7             	enclu  

0000000000006aae <__morestack>:
    6aae:	55                   	push   rbp
    6aaf:	48 89 e5             	mov    rbp,rsp
    6ab2:	48 83 ec 20          	sub    rsp,0x20
    6ab6:	e8 da fe ff ff       	call   6995 <do_ocall>
    6abb:	c9                   	leave  
    6abc:	c3                   	ret    

0000000000006abd <asm_oret>:
    6abd:	48 89 e3             	mov    rbx,rsp
    6ac0:	48 89 7c 24 08       	mov    QWORD PTR [rsp+0x8],rdi
    6ac5:	48 89 74 24 10       	mov    QWORD PTR [rsp+0x10],rsi
    6aca:	48 8b 63 08          	mov    rsp,QWORD PTR [rbx+0x8]
    6ace:	48 8b bc 24 98 00 00 	mov    rdi,QWORD PTR [rsp+0x98]
    6ad5:	00 
    6ad6:	e8 0b fd ff ff       	call   67e6 <restore_xregs>
    6adb:	48 31 c0             	xor    rax,rax
    6ade:	48 8b 4c 24 58       	mov    rcx,QWORD PTR [rsp+0x58]
    6ae3:	48 29 f9             	sub    rcx,rdi
    6ae6:	48 83 e9 08          	sub    rcx,0x8
    6aea:	48 c1 e9 02          	shr    rcx,0x2
    6aee:	fc                   	cld    
    6aef:	f3 ab                	rep stos DWORD PTR es:[rdi],eax
    6af1:	48 8b 43 10          	mov    rax,QWORD PTR [rbx+0x10]
    6af5:	4c 8b 7c 24 38       	mov    r15,QWORD PTR [rsp+0x38]
    6afa:	4c 8b 74 24 40       	mov    r14,QWORD PTR [rsp+0x40]
    6aff:	4c 8b 6c 24 48       	mov    r13,QWORD PTR [rsp+0x48]
    6b04:	4c 8b 64 24 50       	mov    r12,QWORD PTR [rsp+0x50]
    6b09:	48 8b 6c 24 58       	mov    rbp,QWORD PTR [rsp+0x58]
    6b0e:	48 8b 7c 24 60       	mov    rdi,QWORD PTR [rsp+0x60]
    6b13:	48 8b 74 24 68       	mov    rsi,QWORD PTR [rsp+0x68]
    6b18:	48 8b 5c 24 70       	mov    rbx,QWORD PTR [rsp+0x70]
    6b1d:	48 89 ec             	mov    rsp,rbp
    6b20:	5d                   	pop    rbp
    6b21:	c3                   	ret    
    6b22:	0f 0b                	ud2    

0000000000006b24 <do_egetkey>:
    6b24:	53                   	push   rbx
    6b25:	51                   	push   rcx
    6b26:	52                   	push   rdx
    6b27:	48 89 fb             	mov    rbx,rdi
    6b2a:	48 89 f1             	mov    rcx,rsi
    6b2d:	48 c7 c0 01 00 00 00 	mov    rax,0x1
    6b34:	0f 01 d7             	enclu  
    6b37:	74 03                	je     6b3c <do_egetkey+0x18>
    6b39:	48 31 c0             	xor    rax,rax
    6b3c:	5a                   	pop    rdx
    6b3d:	59                   	pop    rcx
    6b3e:	5b                   	pop    rbx
    6b3f:	c3                   	ret    

0000000000006b40 <do_ereport>:
    6b40:	53                   	push   rbx
    6b41:	51                   	push   rcx
    6b42:	52                   	push   rdx
    6b43:	48 89 fb             	mov    rbx,rdi
    6b46:	48 89 f1             	mov    rcx,rsi
    6b49:	48 c7 c0 00 00 00 00 	mov    rax,0x0
    6b50:	f8                   	clc    

0000000000006b51 <Lereport_inst>:
    6b51:	0f 01 d7             	enclu  
    6b54:	0f 92 c0             	setb   al
    6b57:	5a                   	pop    rdx
    6b58:	59                   	pop    rcx
    6b59:	5b                   	pop    rbx
    6b5a:	c3                   	ret    

0000000000006b5b <do_eaccept>:
    6b5b:	53                   	push   rbx
    6b5c:	51                   	push   rcx
    6b5d:	52                   	push   rdx
    6b5e:	48 89 fb             	mov    rbx,rdi
    6b61:	48 89 f1             	mov    rcx,rsi
    6b64:	b8 05 00 00 00       	mov    eax,0x5
    6b69:	0f 01 d7             	enclu  
    6b6c:	83 f8 00             	cmp    eax,0x0
    6b6f:	75 38                	jne    6ba9 <abort>
    6b71:	5a                   	pop    rdx
    6b72:	59                   	pop    rcx
    6b73:	5b                   	pop    rbx
    6b74:	c3                   	ret    

0000000000006b75 <do_emodpe>:
    6b75:	53                   	push   rbx
    6b76:	51                   	push   rcx
    6b77:	52                   	push   rdx
    6b78:	48 89 fb             	mov    rbx,rdi
    6b7b:	48 89 f1             	mov    rcx,rsi
    6b7e:	b8 06 00 00 00       	mov    eax,0x6
    6b83:	0f 01 d7             	enclu  
    6b86:	5a                   	pop    rdx
    6b87:	59                   	pop    rcx
    6b88:	5b                   	pop    rbx
    6b89:	c3                   	ret    

0000000000006b8a <do_rdrand>:
    6b8a:	b9 0a 00 00 00       	mov    ecx,0xa
    6b8f:	0f c7 f0             	rdrand eax
    6b92:	72 08                	jb     6b9c <do_rdrand+0x12>
    6b94:	ff c9                	dec    ecx
    6b96:	75 f7                	jne    6b8f <do_rdrand+0x5>
    6b98:	48 31 c0             	xor    rax,rax
    6b9b:	c3                   	ret    
    6b9c:	48 89 f9             	mov    rcx,rdi
    6b9f:	89 01                	mov    DWORD PTR [rcx],eax
    6ba1:	48 c7 c0 01 00 00 00 	mov    rax,0x1
    6ba8:	c3                   	ret    

0000000000006ba9 <abort>:
    6ba9:	48 8d 05 f0 24 20 00 	lea    rax,[rip+0x2024f0]        # 2090a0 <g_enclave_state>
    6bb0:	c7 00 03 00 00 00    	mov    DWORD PTR [rax],0x3
    6bb6:	0f 0b                	ud2    

0000000000006bb8 <continue_execution>:
    6bb8:	48 89 f9             	mov    rcx,rdi
    6bbb:	48 8b 01             	mov    rax,QWORD PTR [rcx]
    6bbe:	50                   	push   rax
    6bbf:	48 8b 41 08          	mov    rax,QWORD PTR [rcx+0x8]
    6bc3:	50                   	push   rax
    6bc4:	48 8b 41 20          	mov    rax,QWORD PTR [rcx+0x20]
    6bc8:	48 2d 88 00 00 00    	sub    rax,0x88
    6bce:	48 8b 51 10          	mov    rdx,QWORD PTR [rcx+0x10]
    6bd2:	48 8b 59 18          	mov    rbx,QWORD PTR [rcx+0x18]
    6bd6:	48 8b 69 28          	mov    rbp,QWORD PTR [rcx+0x28]
    6bda:	48 8b 71 30          	mov    rsi,QWORD PTR [rcx+0x30]
    6bde:	48 8b 79 38          	mov    rdi,QWORD PTR [rcx+0x38]
    6be2:	4c 8b 41 40          	mov    r8,QWORD PTR [rcx+0x40]
    6be6:	4c 8b 49 48          	mov    r9,QWORD PTR [rcx+0x48]
    6bea:	4c 8b 51 50          	mov    r10,QWORD PTR [rcx+0x50]
    6bee:	4c 8b 59 58          	mov    r11,QWORD PTR [rcx+0x58]
    6bf2:	4c 8b 61 60          	mov    r12,QWORD PTR [rcx+0x60]
    6bf6:	4c 8b 69 68          	mov    r13,QWORD PTR [rcx+0x68]
    6bfa:	4c 8b 71 70          	mov    r14,QWORD PTR [rcx+0x70]
    6bfe:	4c 8b 79 78          	mov    r15,QWORD PTR [rcx+0x78]
    6c02:	ff b1 80 00 00 00    	push   QWORD PTR [rcx+0x80]
    6c08:	9d                   	popf   
    6c09:	48 8b 89 88 00 00 00 	mov    rcx,QWORD PTR [rcx+0x88]
    6c10:	48 89 08             	mov    QWORD PTR [rax],rcx
    6c13:	59                   	pop    rcx
    6c14:	5c                   	pop    rsp
    6c15:	48 94                	xchg   rsp,rax
    6c17:	c2 80 00             	ret    0x80
